(dp1
S'output'
p2
S"<type 'exceptions.ValueError'> invalid literal for long() with base 10: 'onLike'"
p3
sS'layer'
p4
S'/Users/subash/Dropbox/MTechSem1/1_ScriptingAndComputingEnv/web2py/applications/iConnect/controllers/default.py'
p5
sS'code'
p6
S'# -*- coding: utf-8 -*-\n# this file is released under public domain and you can use without limitations\n\n#########################################################################\n## This is a sample controller\n## - index is the default action of any application\n## - user is required for authentication and authorization\n## - download is for downloading files uploaded in the db (does streaming)\n#########################################################################\n\ndef index():\n    if auth.user!=None:\n        redirect(URL(\'default\',\'homeFree\'))\n    return locals()\n\n\ndef user():\n    """\n    exposes:\n    http://..../[app]/default/user/login\n    http://..../[app]/default/user/logout\n    http://..../[app]/default/user/register\n    http://..../[app]/default/user/profile\n    http://..../[app]/default/user/retrieve_password\n    http://..../[app]/default/user/change_password\n    http://..../[app]/default/user/manage_users (requires membership in\n    http://..../[app]/default/user/bulk_register\n    use @auth.requires_login()\n        @auth.requires_membership(\'group name\')\n        @auth.requires_permission(\'read\',\'table name\',record_id)\n    to decorate functions that need access control\n    """\n    return dict(form=auth())\n\n\n#home page for a free user\n@auth.requires_login()\ndef homeFree():\n    message="hello. dis is your home page"\n    row=db(db.auth_user.id==auth.user.id).select().first()\n    if row.premium==\'1\':\n        redirect(URL(\'default\',\'homePremium\'))\n    userName=auth.user.first_name\n    query=(auth.user.gender!=db.auth_user.gender) & (db.auth_user.religion==auth.user.religion) & (db.auth_user.caste==auth.user.caste)\n    rows=db(query).select()\n    return locals() \n\n#home page for a premium user\n@auth.requires_login()\ndef homePremium():\n    message ="this is home page of a premium user"\n    userName=auth.user.first_name\n    matches = {}\n    query=(auth.user.gender!=db.auth_user.gender) & (db.auth_user.religion==auth.user.religion) & (db.auth_user.caste==auth.user.caste)\n    rows=db(query).select()\n    myInter=db(db.Interests.userId==auth.user.id).select().first()\n    for row in rows:\n        if row.premium==\'1\':\n            tempRow=db(db.Interests.userId==row.id).select().first()\n            if(tempRow.Reading==myInter.Reading):\n                if row.id not in matches:\n                    matches[row.id]=1\n                else:\n                    matches[row.id]=matches[row.id]+1\n\n            if(tempRow.Music==myInter.Music):\n                if row.id not in matches:\n                    matches[row.id]=1\n                else:\n                    matches[row.id]=matches[row.id]+1\n\n            if(tempRow.Movies==myInter.Movies):\n                if row.id not in matches:\n                    matches[row.id]=1\n                else:\n                    matches[row.id]=matches[row.id]+1\n\n            if(tempRow.Travelling==myInter.Travelling):\n                if row.id not in matches:\n                    matches[row.id]=1\n                else:\n                    matches[row.id]=matches[row.id]+1\n\n            if(tempRow.Fitness==myInter.Fitness):\n                if row.id not in matches:\n                    matches[row.id]=1\n                else:\n                    matches[row.id]=matches[row.id]+1\n\n\n        if row.diet==auth.user.diet:\n            if row.id not in matches:\n                matches[row.id]=1\n            else:\n                matches[row.id]=matches[row.id]+1\n\n        if row.smoke==auth.user.smoke:\n            if row.id not in matches:\n                matches[row.id]=1\n            else:\n                matches[row.id]=matches[row.id]+1\n\n        if row.drink==auth.user.drink:\n            if row.id not in matches:\n                matches[row.id]=1\n            else:\n                matches[row.id]=matches[row.id]+1\n\n        if row.bodyType==auth.user.bodyType:\n            if row.id not in matches:\n                matches[row.id]=1\n            else:\n                matches[row.id]=matches[row.id]+1\n\n        if row.skinTone==auth.user.skinTone:\n            if row.id not in matches:\n                matches[row.id]=1\n            else:\n                matches[row.id]=matches[row.id]+1\n    mIds=[]\n    mCount=[]\n    for i in matches:\n        mIds.append(i)\n        mCount.append(matches[i])\n    \n\n    i=0\n    while i<len(mCount):\n        j=0\n        while j<len(mCount)-1:\n            if mCount[j]<mCount[j+1]:\n                temp=mCount[j]\n                mCount[j]=mCount[j+1]\n                mCount[j+1]=temp\n\n                temp=mIds[j]\n                mIds[j]=mIds[j+1]\n                mIds[j+1]=temp\n            j=j+1\n        i=i+1\n    return locals()\n\n\n#profile view of a free user \n@auth.requires_login()\ndef myProfileFree():\n    row=db(db.auth_user.id==auth.user.id).select().first()\n    if row.premium==\'1\':\n        redirect(URL(\'default\',\'myProfilePremium\'))\n    myInfo=auth.user\n    return locals()\n\n\n#profile view of a premium user who has filled additional info\n@auth.requires_login()\ndef myProfilePremium():\n    myInfo=auth.user\n    myIntr=db(db.Interests.userId==auth.user.id).select().first()\n    return locals()\n\n\n#suggested profile visibilty for a free user\n@auth.requires_login()\ndef freeProfile():\n    row=db(db.auth_user.id==auth.user.id).select().first()\n    if row.premium==\'1\':\n        redirect(URL(\'default\',\'premiumProfile\',args=request.args))\n    userInfo=db(db.auth_user.id==request.args[0]).select()\n    return locals()\n\n#suggested profile visibility for a premium user\n@auth.requires_login()\ndef premiumProfile():\n    userInfo=db(db.auth_user.id==request.args[0]).select()\n    userIntr=db(db.Interests.userId==request.args[0]).select().first()\n    return locals()\n\n\ndef myValidation(form):\n    form.vars.userId=auth.user.id\n\n\n@auth.requires_login()\ndef goPremium():\n    form=SQLFORM(db.Interests)\n\n    if form.process(onvalidation=myValidation).accepted:\n        row = db(db.auth_user.id==auth.user.id).select().first()\n        row.update_record(premium=\'1\')\n        auth.user.premium=1\n        email=auth.user.email\n        if mail.send(to=[email],subject=\'Re: Premium Trail Activated (iConnect)\',message=\'Dear User, Your premium account trail period has been activated. Expires in 1 month.\'):\n            response.flash = \'email sent\'\n        else:\n            response.flash = \'sent failed\'\n\n        \n        redirect(URL(\'homePremium\'))\n    return locals()\n\n\n\n#making dummy payment\n@auth.requires_login()\ndef payment():\n    return locals()\n\n#handling likes\ndef onLike():\n    likes=auth.user.likes\n    return str(likes)\n\n\n\n@cache.action()\ndef download():\n    """\n    allows downloading of uploaded files\n    http://..../[app]/default/download/[filename]\n    """\n    return response.download(request, db)\n\n\ndef call():\n    """\n    exposes services. for example:\n    http://..../[app]/default/call/jsonrpc\n    decorate with @services.jsonrpc the functions to expose\n    supports xml, json, xmlrpc, jsonrpc, amfrpc, rss, csv\n    """\n    return service()\n\n\n\nresponse._vars=response._caller(premiumProfile)\n'
p7
sS'snapshot'
p8
(dp9
sS'traceback'
p10
S'Traceback (most recent call last):\n  File "/Users/subash/Dropbox/MTechSem1/1_ScriptingAndComputingEnv/web2py/gluon/restricted.py", line 227, in restricted\n    exec ccode in environment\n  File "/Users/subash/Dropbox/MTechSem1/1_ScriptingAndComputingEnv/web2py/applications/iConnect/controllers/default.py", line 235, in <module>\n  File "/Users/subash/Dropbox/MTechSem1/1_ScriptingAndComputingEnv/web2py/gluon/globals.py", line 412, in <lambda>\n    self._caller = lambda f: f()\n  File "/Users/subash/Dropbox/MTechSem1/1_ScriptingAndComputingEnv/web2py/gluon/tools.py", line 3774, in f\n    return action(*a, **b)\n  File "/Users/subash/Dropbox/MTechSem1/1_ScriptingAndComputingEnv/web2py/applications/iConnect/controllers/default.py", line 174, in premiumProfile\n    userInfo=db(db.auth_user.id==request.args[0]).select()\n  File "/Users/subash/Dropbox/MTechSem1/1_ScriptingAndComputingEnv/web2py/gluon/packages/dal/pydal/objects.py", line 2002, in select\n    return adapter.select(self.query,fields,attributes)\n  File "/Users/subash/Dropbox/MTechSem1/1_ScriptingAndComputingEnv/web2py/gluon/packages/dal/pydal/adapters/sqlite.py", line 122, in select\n    return super(SQLiteAdapter, self).select(query, fields, attributes)\n  File "/Users/subash/Dropbox/MTechSem1/1_ScriptingAndComputingEnv/web2py/gluon/packages/dal/pydal/adapters/base.py", line 1273, in select\n    sql = self._select(query, fields, attributes)\n  File "/Users/subash/Dropbox/MTechSem1/1_ScriptingAndComputingEnv/web2py/gluon/packages/dal/pydal/adapters/base.py", line 1160, in _select\n    sql_w = \' WHERE \' + self.expand(query) if query else \'\'\n  File "/Users/subash/Dropbox/MTechSem1/1_ScriptingAndComputingEnv/web2py/gluon/packages/dal/pydal/adapters/base.py", line 945, in expand\n    rv = op(first, second, **optional_args)\n  File "/Users/subash/Dropbox/MTechSem1/1_ScriptingAndComputingEnv/web2py/gluon/packages/dal/pydal/adapters/base.py", line 839, in EQ\n    self.expand(second, first.type))\n  File "/Users/subash/Dropbox/MTechSem1/1_ScriptingAndComputingEnv/web2py/gluon/packages/dal/pydal/adapters/base.py", line 955, in expand\n    rv = self.represent(expression, field_type)\n  File "/Users/subash/Dropbox/MTechSem1/1_ScriptingAndComputingEnv/web2py/gluon/packages/dal/pydal/adapters/base.py", line 1425, in represent\n    return str(long(obj))\nValueError: invalid literal for long() with base 10: \'onLike\'\n'
p11
s.