(dp1
S'output'
p2
S"<type 'exceptions.AttributeError'> "
p3
sS'layer'
p4
S'/Users/subash/Dropbox/MTechSem1/1_ScriptingAndComputingEnv/web2py/applications/iConnect/controllers/default.py'
p5
sS'code'
p6
S'# -*- coding: utf-8 -*-\n# this file is released under public domain and you can use without limitations\n\n#########################################################################\n## This is a sample controller\n## - index is the default action of any application\n## - user is required for authentication and authorization\n## - download is for downloading files uploaded in the db (does streaming)\n#########################################################################\n\ndef index():\n    if auth.user!=None:\n        redirect(URL(\'default\',\'homeFree\'))\n    return locals()\n\n\ndef user():\n    """\n    exposes:\n    http://..../[app]/default/user/login\n    http://..../[app]/default/user/logout\n    http://..../[app]/default/user/register\n    http://..../[app]/default/user/profile\n    http://..../[app]/default/user/retrieve_password\n    http://..../[app]/default/user/change_password\n    http://..../[app]/default/user/manage_users (requires membership in\n    http://..../[app]/default/user/bulk_register\n    use @auth.requires_login()\n        @auth.requires_membership(\'group name\')\n        @auth.requires_permission(\'read\',\'table name\',record_id)\n    to decorate functions that need access control\n    """\n    return dict(form=auth())\n\n\n#home page for a free user\n@auth.requires_login()\ndef homeFree():\n    if auth.user.first_name==\'admin\':\n        redirect(URL(\'default\',\'admin\'))\n    message="hello. dis is your home page"\n    row=db(db.auth_user.id==auth.user.id).select().first()\n    if row.premium==\'1\':\n        redirect(URL(\'default\',\'homePremium\'))\n    userName=auth.user.first_name\n    query=(auth.user.gender!=db.auth_user.gender) & (db.auth_user.religion==auth.user.religion) & (db.auth_user.caste==auth.user.caste)\n    rows=db(query).select()\n    return locals() \n\n#home page for a premium user\n@auth.requires_login()\ndef homePremium():\n    message ="this is home page of a premium user"\n    userName=auth.user.first_name\n    matches = {}\n    query=(auth.user.gender!=db.auth_user.gender) & (db.auth_user.religion==auth.user.religion) & (db.auth_user.caste==auth.user.caste)\n    rows=db(query).select()\n    myInter=db(db.Interests.userId==auth.user.id).select().first()\n    for row in rows:\n        if row.premium==\'1\':\n            tempRow=db(db.Interests.userId==row.id).select().first()\n            if(tempRow.Reading==myInter.Reading):\n                if row.id not in matches:\n                    matches[row.id]=1\n                else:\n                    matches[row.id]=matches[row.id]+1\n\n            if(tempRow.Music==myInter.Music):\n                if row.id not in matches:\n                    matches[row.id]=1\n                else:\n                    matches[row.id]=matches[row.id]+1\n\n            if(tempRow.Movies==myInter.Movies):\n                if row.id not in matches:\n                    matches[row.id]=1\n                else:\n                    matches[row.id]=matches[row.id]+1\n\n            if(tempRow.Travelling==myInter.Travelling):\n                if row.id not in matches:\n                    matches[row.id]=1\n                else:\n                    matches[row.id]=matches[row.id]+1\n\n            if(tempRow.Fitness==myInter.Fitness):\n                if row.id not in matches:\n                    matches[row.id]=1\n                else:\n                    matches[row.id]=matches[row.id]+1\n\n\n        if row.diet==auth.user.diet:\n            if row.id not in matches:\n                matches[row.id]=1\n            else:\n                matches[row.id]=matches[row.id]+1\n\n        if row.smoke==auth.user.smoke:\n            if row.id not in matches:\n                matches[row.id]=1\n            else:\n                matches[row.id]=matches[row.id]+1\n\n        if row.drink==auth.user.drink:\n            if row.id not in matches:\n                matches[row.id]=1\n            else:\n                matches[row.id]=matches[row.id]+1\n\n        if row.bodyType==auth.user.bodyType:\n            if row.id not in matches:\n                matches[row.id]=1\n            else:\n                matches[row.id]=matches[row.id]+1\n\n        if row.skinTone==auth.user.skinTone:\n            if row.id not in matches:\n                matches[row.id]=1\n            else:\n                matches[row.id]=matches[row.id]+1\n    mIds=[]\n    mCount=[]\n    for i in matches:\n        mIds.append(i)\n        mCount.append(matches[i])\n    \n\n    i=0\n    while i<len(mCount):\n        j=0\n        while j<len(mCount)-1:\n            if mCount[j]<mCount[j+1]:\n                temp=mCount[j]\n                mCount[j]=mCount[j+1]\n                mCount[j+1]=temp\n\n                temp=mIds[j]\n                mIds[j]=mIds[j+1]\n                mIds[j+1]=temp\n            j=j+1\n        i=i+1\n    return locals()\n\n\n#profile view of a free user \n@auth.requires_login()\ndef myProfileFree():\n    if auth.user.first_name==\'admin\':\n        redirect(URL(\'default\',\'admin\'))\n    row=db(db.auth_user.id==auth.user.id).select().first()\n    if row.premium==\'1\':\n        redirect(URL(\'default\',\'myProfilePremium\'))\n    myInfo=auth.user\n    return locals()\n\n\n#profile view of a premium user who has filled additional info\n@auth.requires_login()\ndef myProfilePremium():\n    myInfo=auth.user\n    myIntr=db(db.Interests.userId==auth.user.id).select().first()\n    return locals()\n\n\n#suggested profile visibilty for a free user\n@auth.requires_login()\ndef freeProfile():\n    row=db(db.auth_user.id==request.args[0]).select().first()\n    if row.premium==\'1\':\n        redirect(URL(\'default\',\'premiumProfile\',args=request.args))\n    userInfo=db(db.auth_user.id==request.args[0]).select()\n    return locals()\n\n#suggested profile visibility for a premium user\n@auth.requires_login()\ndef premiumProfile():\n    userInfo=db(db.auth_user.id==request.args[0]).select()\n    userIntr=db(db.Interests.userId==request.args[0]).select().first()\n    myIntr=db(db.Interests.userId==auth.user.id).select().first()\n    myInfo=auth.user\n    return locals()\n\n\ndef myValidation(form):\n    form.vars.userId=auth.user.id\n\n\n\n@auth.requires_login()\ndef goPremium():\n    if auth.user.first_name==\'admin\':\n        redirect(URL(\'default\',\'admin\'))\n    form=SQLFORM(db.Interests)\n\n    if form.process(onvalidation=myValidation).accepted:\n        row = db(db.auth_user.id==auth.user.id).select().first()\n        row.update_record(premium=\'1\')\n        auth.user.premium=1\n        email=auth.user.email\n        if mail.send(to=[email],subject=\'Re: Premium Trail Activated (iConnect)\',message=\'Dear User, Your premium account trail period has been activated. Expires in 1 month.\'):\n            response.flash = \'email sent\'\n        else:\n            response.flash = \'sent failed\'\n\n        \n        redirect(URL(\'homePremium\'))\n    return locals()\n\n\n\n\n#making dummy payment\n@auth.requires_login()\ndef payment():\n    if auth.user.first_name==\'admin\':\n        redirect(URL(\'default\',\'admin\'))\n    return locals()\n\n\n#handling likes\ndef onLike():\n    lId=request.args[0]\n    userId=auth.user.id\n\n    rows =db((db.likesTable.userId==userId) & (db.likesTable.lId==lId)).select()\n    if len(rows)==0:\n        db.likesTable.insert(userId=userId,lId=lId)\n        response.flash=\'U liked this profile\'\n    else:\n        response.flash=\'U already liked this profiles\'\n    \n\n    rows1 = db(db.likesTable.lId==lId).select()\n    likes=len(rows1)\n    return " "+str(likes)\n\n\n#handling spams\ndef onSpam():\n    sId=request.args[0]\n    userId=auth.user.id\n\n    rows =db((db.spamTable.userId==userId) & (db.spamTable.sId==sId)).select()\n    if len(rows)==0:\n        db.spamTable.insert(userId=userId,sId=sId)\n        response.flash=\'U spamed this profile\'\n    else:\n        response.flash=\'U already spamed this profiles\'\n    \n\n    rows1 = db(db.spamTable.sId==sId).select()\n    spams=len(rows1)\n    return " "+str(spams)\n\n\n#wishlist \n@auth.requires_login()\ndef wishList():\n    if auth.user.first_name==\'admin\':\n        redirect(URL(\'default\',\'admin\'))\n    if auth.user.premium==\'0\':\n        session.flash="You are a Free User. Upgrade to Premium"\n        redirect(URL(\'default\',\'payment\'))\n\n    rows=db(db.WishlistTable.userId==auth.user.id).select()\n    myList=[]\n    for row in rows:\n        myList.append(row.wId)\n    myInfo=auth.user\n\n    return locals()\n\n#full list\n@auth.requires_login()\ndef fullList():\n    if auth.user.first_name==\'admin\':\n        redirect(URL(\'default\',\'admin\'))\n    if auth.user.premium==\'0\':\n        session.flash="You are a Free User. Upgrade to Premium"\n        redirect(URL(\'default\',\'payment\'))\n\n    users=db(db.auth_user.dender!=auth.user.gender).select()\n    \n    return locals()\n\n\n#add users to wishList\ndef addToWishlist():\n    wId=request.args[0]\n    userId=auth.user.id\n\n    rows =db((db.WishlistTable.userId==userId) & (db.WishlistTable.wId==wId)).select()\n    if len(rows)==0:\n        db.WishlistTable.insert(userId=userId,wId=wId)\n        response.flash=\'Added to Wishlist\'\n    else:\n        response.flash="Already in yourt Wishlist"\n\n\n\n#admin begin ********\n\ndef admin():\n    user_table = None\n    interests_table = None\n    if request.args(0) == "auth_user":\n        user_table = SQLFORM.smartgrid(db.auth_user)\n    elif request.args(0) == "interests" or request.args(0) == "Interests":\n        interests_table = SQLFORM.smartgrid(db.Interests)\n    return locals()\n\n\n#admin end ****\n\n\n\n#send maild\ndef sendMail():\n    row = db(db.auth_user.id==request.args[0]).select().first()\n    fname=row.first_name\n    lname=row.last_name\n    mailId=row.email\n    form=SQLFORM.factory(Field(\'Subject\',\'string\',requires=IS_NOT_EMPTY()),Field(\'Body\',\'text\',requires=IS_NOT_EMPTY()))\n    \n    if form.accepts(request,session):\n        subject=form.vars.Subject\n        body=form.vars.Body\n        email=row.email\n        if mail.send(to=[email],subject=subject,message=body):\n            response.flash = \'email sent\'\n        else:\n            response.flash = \'sent failed\'\n        redirect(URL(\'default\',\'premiumProfile\',args=[request.args[0]]))\n\n    return locals()\n\n@cache.action()\ndef download():\n    """\n    allows downloading of uploaded files\n    http://..../[app]/default/download/[filename]\n    """\n    return response.download(request, db)\n\n\ndef call():\n    """\n    exposes services. for example:\n    http://..../[app]/default/call/jsonrpc\n    decorate with @services.jsonrpc the functions to expose\n    supports xml, json, xmlrpc, jsonrpc, amfrpc, rss, csv\n    """\n    return service()\n\n\n\nresponse._vars=response._caller(fullList)\n'
p7
sS'snapshot'
p8
(dp9
S'exception'
p10
(dp11
S'__hash__'
p12
S"<method-wrapper '__hash__' of exceptions.AttributeError object>"
p13
sS'__setattr__'
p14
S"<method-wrapper '__setattr__' of exceptions.AttributeError object>"
p15
sS'__reduce_ex__'
p16
S'<built-in method __reduce_ex__ of exceptions.AttributeError object>'
p17
sS'__getslice__'
p18
S"<method-wrapper '__getslice__' of exceptions.AttributeError object>"
p19
sS'__getitem__'
p20
S"<method-wrapper '__getitem__' of exceptions.AttributeError object>"
p21
sS'__setstate__'
p22
S'<built-in method __setstate__ of exceptions.AttributeError object>'
p23
sS'args'
p24
S'()'
p25
sS'__reduce__'
p26
S'<built-in method __reduce__ of exceptions.AttributeError object>'
p27
sS'__str__'
p28
S"<method-wrapper '__str__' of exceptions.AttributeError object>"
p29
sS'__format__'
p30
S'<built-in method __format__ of exceptions.AttributeError object>'
p31
sS'__getattribute__'
p32
S"<method-wrapper '__getattribute__' of exceptions.AttributeError object>"
p33
sS'__class__'
p34
S"<type 'exceptions.AttributeError'>"
p35
sS'__unicode__'
p36
S'<built-in method __unicode__ of exceptions.AttributeError object>'
p37
sS'__delattr__'
p38
S"<method-wrapper '__delattr__' of exceptions.AttributeError object>"
p39
sS'__subclasshook__'
p40
S'<built-in method __subclasshook__ of type object>'
p41
sS'__repr__'
p42
S"<method-wrapper '__repr__' of exceptions.AttributeError object>"
p43
sS'__dict__'
p44
S'{}'
p45
sS'__sizeof__'
p46
S'<built-in method __sizeof__ of exceptions.AttributeError object>'
p47
sS'__doc__'
p48
S"'Attribute not found.'"
p49
sS'__init__'
p50
S"<method-wrapper '__init__' of exceptions.AttributeError object>"
p51
sS'__new__'
p52
S'<built-in method __new__ of type object>'
p53
ssS'evalue'
p54
S''
sS'request'
p55
cgluon.html
XML_unpickle
p56
(S's\x13a\x00\x00<div><table><tr><td style="font-weight:bold;vertical-align:top;">ajax</td><td style="vertical-align:top;">:</td><td><div>False</div></td></tr><tr><td style="font-weight:bold;vertical-align:top;">application</td><td style="vertical-align:top;">:</td><td><div>iConnect</div></td></tr><tr><td style="font-weight:bold;vertical-align:top;">args</td><td style="vertical-align:top;">:</td><td><div><table></table></div></td></tr><tr><td style="font-weight:bold;vertical-align:top;">cid</td><td style="vertical-align:top;">:</td><td><div>None</div></td></tr><tr><td style="font-weight:bold;vertical-align:top;">client</td><td style="vertical-align:top;">:</td><td><div>127.0.0.1</div></td></tr><tr><td style="font-weight:bold;vertical-align:top;">controller</td><td style="vertical-align:top;">:</td><td><div>default</div></td></tr><tr><td style="font-weight:bold;vertical-align:top;">cookies</td><td style="vertical-align:top;">:</td><td><div><table><tr><td style="font-weight:bold;vertical-align:top;">session_id_admin</td><td style="vertical-align:top;">:</td><td><div>127.0.0.1-38c33bd0-9e9b-468f-b01c-972268960f28<table><tr><td style="font-weight:bold;vertical-align:top;">comment</td><td style="vertical-align:top;">:</td><td><div></div></td></tr><tr><td style="font-weight:bold;vertical-align:top;">domain</td><td style="vertical-align:top;">:</td><td><div></div></td></tr><tr><td style="font-weight:bold;vertical-align:top;">expires</td><td style="vertical-align:top;">:</td><td><div></div></td></tr><tr><td style="font-weight:bold;vertical-align:top;">httponly</td><td style="vertical-align:top;">:</td><td><div></div></td></tr><tr><td style="font-weight:bold;vertical-align:top;">max-age</td><td style="vertical-align:top;">:</td><td><div></div></td></tr><tr><td style="font-weight:bold;vertical-align:top;">path</td><td style="vertical-align:top;">:</td><td><div></div></td></tr><tr><td style="font-weight:bold;vertical-align:top;">secure</td><td style="vertical-align:top;">:</td><td><div></div></td></tr><tr><td style="font-weight:bold;vertical-align:top;">version</td><td style="vertical-align:top;">:</td><td><div></div></td></tr></table></div></td></tr><tr><td style="font-weight:bold;vertical-align:top;">session_id_iconnect</td><td style="vertical-align:top;">:</td><td><div>127.0.0.1-7b914d5b-a2d4-4719-95eb-1c8121ef8cfb<table><tr><td style="font-weight:bold;vertical-align:top;">comment</td><td style="vertical-align:top;">:</td><td><div></div></td></tr><tr><td style="font-weight:bold;vertical-align:top;">domain</td><td style="vertical-align:top;">:</td><td><div></div></td></tr><tr><td style="font-weight:bold;vertical-align:top;">expires</td><td style="vertical-align:top;">:</td><td><div></div></td></tr><tr><td style="font-weight:bold;vertical-align:top;">httponly</td><td style="vertical-align:top;">:</td><td><div></div></td></tr><tr><td style="font-weight:bold;vertical-align:top;">max-age</td><td style="vertical-align:top;">:</td><td><div></div></td></tr><tr><td style="font-weight:bold;vertical-align:top;">path</td><td style="vertical-align:top;">:</td><td><div></div></td></tr><tr><td style="font-weight:bold;vertical-align:top;">secure</td><td style="vertical-align:top;">:</td><td><div></div></td></tr><tr><td style="font-weight:bold;vertical-align:top;">version</td><td style="vertical-align:top;">:</td><td><div></div></td></tr></table></div></td></tr><tr><td style="font-weight:bold;vertical-align:top;">session_id_welcome</td><td style="vertical-align:top;">:</td><td><div>127.0.0.1-a8f3d30c-c2af-4c93-9944-335ffc40b382<table><tr><td style="font-weight:bold;vertical-align:top;">comment</td><td style="vertical-align:top;">:</td><td><div></div></td></tr><tr><td style="font-weight:bold;vertical-align:top;">domain</td><td style="vertical-align:top;">:</td><td><div></div></td></tr><tr><td style="font-weight:bold;vertical-align:top;">expires</td><td style="vertical-align:top;">:</td><td><div></div></td></tr><tr><td style="font-weight:bold;vertical-align:top;">httponly</td><td style="vertical-align:top;">:</td><td><div></div></td></tr><tr><td style="font-weight:bold;vertical-align:top;">max-age</td><td style="vertical-align:top;">:</td><td><div></div></td></tr><tr><td style="font-weight:bold;vertical-align:top;">path</td><td style="vertical-align:top;">:</td><td><div></div></td></tr><tr><td style="font-weight:bold;vertical-align:top;">secure</td><td style="vertical-align:top;">:</td><td><div></div></td></tr><tr><td style="font-weight:bold;vertical-align:top;">version</td><td style="vertical-align:top;">:</td><td><div></div></td></tr></table></div></td></tr></table></div></td></tr><tr><td style="font-weight:bold;vertical-align:top;">env</td><td style="vertical-align:top;">:</td><td><div><table><tr><td style="font-weight:bold;vertical-align:top;">HTTP_ACCEPT</td><td style="vertical-align:top;">:</td><td><div>text/html,application/xhtml+xml,application/xml;q=0.9,image/webp,*/*;q=0.8</div></td></tr><tr><td style="font-weight:bold;vertical-align:top;">HTTP_ACCEPT_ENCODING</td><td style="vertical-align:top;">:</td><td><div>gzip, deflate, sdch</div></td></tr><tr><td style="font-weight:bold;vertical-align:top;">HTTP_ACCEPT_LANGUAGE</td><td style="vertical-align:top;">:</td><td><div>en-US,en;q=0.8</div></td></tr><tr><td style="font-weight:bold;vertical-align:top;">HTTP_CACHE_CONTROL</td><td style="vertical-align:top;">:</td><td><div>max-age=0</div></td></tr><tr><td style="font-weight:bold;vertical-align:top;">HTTP_CONNECTION</td><td style="vertical-align:top;">:</td><td><div>keep-alive</div></td></tr><tr><td style="font-weight:bold;vertical-align:top;">HTTP_COOKIE</td><td style="vertical-align:top;">:</td><td><div>session_id_welcome=127.0.0.1-a8f3d30c-c2af-4c93-9944-335ffc40b382; session_id_iconnect=127.0.0.1-7b914d5b-a2d4-4719-95eb-1c8121ef8cfb; session_id_admin=127.0.0.1-38c33bd0-9e9b-468f-b01c-972268960f28</div></td></tr><tr><td style="font-weight:bold;vertical-align:top;">HTTP_HOST</td><td style="vertical-align:top;">:</td><td><div>127.0.0.1:8000</div></td></tr><tr><td style="font-weight:bold;vertical-align:top;">HTTP_REFERER</td><td style="vertical-align:top;">:</td><td><div>http://127.0.0.1:8000/iConnect/default/homePremium</div></td></tr><tr><td style="font-weight:bold;vertical-align:top;">HTTP_UPGRADE_INSECURE_REQUESTS</td><td style="vertical-align:top;">:</td><td><div>1</div></td></tr><tr><td style="font-weight:bold;vertical-align:top;">HTTP_USER_AGENT</td><td style="vertical-align:top;">:</td><td><div>Mozilla/5.0 (Macintosh; Intel Mac OS X 10_11_0) AppleWebKit/537.36 (KHTML, like Gecko) Chrome/46.0.2490.86 Safari/537.36</div></td></tr><tr><td style="font-weight:bold;vertical-align:top;">PATH_INFO</td><td style="vertical-align:top;">:</td><td><div>/iConnect/default/fullList</div></td></tr><tr><td style="font-weight:bold;vertical-align:top;">QUERY_STRING</td><td style="vertical-align:top;">:</td><td><div></div></td></tr><tr><td style="font-weight:bold;vertical-align:top;">REMOTE_ADDR</td><td style="vertical-align:top;">:</td><td><div>127.0.0.1</div></td></tr><tr><td style="font-weight:bold;vertical-align:top;">REMOTE_PORT</td><td style="vertical-align:top;">:</td><td><div>49605</div></td></tr><tr><td style="font-weight:bold;vertical-align:top;">REQUEST_METHOD</td><td style="vertical-align:top;">:</td><td><div>GET</div></td></tr><tr><td style="font-weight:bold;vertical-align:top;">SCRIPT_NAME</td><td style="vertical-align:top;">:</td><td><div></div></td></tr><tr><td style="font-weight:bold;vertical-align:top;">SERVER_NAME</td><td style="vertical-align:top;">:</td><td><div>apples-MacBook-Pro.local</div></td></tr><tr><td style="font-weight:bold;vertical-align:top;">SERVER_PORT</td><td style="vertical-align:top;">:</td><td><div>8000</div></td></tr><tr><td style="font-weight:bold;vertical-align:top;">SERVER_PROTOCOL</td><td style="vertical-align:top;">:</td><td><div>HTTP/1.1</div></td></tr><tr><td style="font-weight:bold;vertical-align:top;">SERVER_SOFTWARE</td><td style="vertical-align:top;">:</td><td><div>Rocket 1.2.6</div></td></tr><tr><td style="font-weight:bold;vertical-align:top;">app_folders</td><td style="vertical-align:top;">:</td><td><div>set([&#x27;/Users/subash/Dropbox/MTechSem1/1_ScriptingAndComputingEnv/web2py/applications/iConnect/&#x27;, &#x27;/Users/subash/Dropbox/MTechSem1/1_ScriptingAndComputingEnv/web2py/applications/admin/&#x27;, &#x27;/Users/subash/Dropbox/MTechSem1/1_ScriptingAndComputingEnv/web2py/applications/welcome/&#x27;])</div></td></tr><tr><td style="font-weight:bold;vertical-align:top;">applications_parent</td><td style="vertical-align:top;">:</td><td><div>/Users/subash/Dropbox/MTechSem1/1_ScriptingAndComputingEnv/web2py</div></td></tr><tr><td style="font-weight:bold;vertical-align:top;">cmd_args</td><td style="vertical-align:top;">:</td><td><div><table></table></div></td></tr><tr><td style="font-weight:bold;vertical-align:top;">cmd_options</td><td style="vertical-align:top;">:</td><td><div>&lt;Values at 0x10400a1b8: {&#x27;verbose&#x27;: False, &#x27;ip&#x27;: &#x27;127.0.0.1&#x27;, &#x27;debuglevel&#x27;: 30, &#x27;with_scheduler&#x27;: False, &#x27;ips&#x27;: [&#x27;10.1.131.132&#x27;, &#x27;fe80::ae87:a3ff:fe39:5176%en4&#x27;], &#x27;shutdown_timeout&#x27;: 5, &#x27;taskbar&#x27;: False, &#x27;with_coverage&#x27;: False, &#x27;scheduler_groups&#x27;: None, &#x27;port&#x27;: 8000, &#x27;maxthreads&#x27;: None, &#x27;softcron&#x27;: False, &#x27;server_name&#x27;: &#x27;apples-MacBook-Pro.local&#x27;, &#x27;bpython&#x27;: False, &#x27;nogui&#x27;: False, &#x27;pid_filename&#x27;: &#x27;httpserver.pid&#x27;, &#x27;print_errors&#x27;: False, &#x27;extcron&#x27;: False, &#x27;runcron&#x27;: False, &#x27;run_system_tests&#x27;: False, &#x27;test&#x27;: None, &#x27;folder&#x27;: &#x27;/Users/subash/Dropbox/MTechSem1/1_ScriptingAndComputingEnv/web2py&#x27;, &#x27;config&#x27;: &#x27;&#x27;, &#x27;minthreads&#x27;: None, &#x27;shell&#x27;: None, &#x27;run&#x27;: &#x27;&#x27;, &#x27;log_filename&#x27;: &#x27;httpserver.log&#x27;, &#x27;profiler_dir&#x27;: None, &#x27;args&#x27;: [&#x27;&#x27;], &#x27;socket_timeout&#x27;: 5, &#x27;ssl_ca_certificate&#x27;: None, &#x27;scheduler&#x27;: None, &#x27;interfaces&#x27;: None, &#x27;ssl_private_key&#x27;: &#x27;&#x27;, &#x27;gae&#x27;: None, &#x27;password&#x27;: &#x27;&lt;ask&gt;&#x27;, &#x27;request_queue_size&#x27;: 5, &#x27;ssl_certificate&#x27;: &#x27;&#x27;, &#x27;cronjob&#x27;: False, &#x27;numthreads&#x27;: None, &#x27;quiet&#x27;: False, &#x27;import_models&#x27;: False, &#x27;timeout&#x27;: 10, &#x27;plain&#x27;: False, &#x27;nobanner&#x27;: False}&gt;</div></td></tr><tr><td style="font-weight:bold;vertical-align:top;">db_sessions</td><td style="vertical-align:top;">:</td><td><div>set([])</div></td></tr><tr><td style="font-weight:bold;vertical-align:top;">debugging</td><td style="vertical-align:top;">:</td><td><div>False</div></td></tr><tr><td style="font-weight:bold;vertical-align:top;">gluon_parent</td><td style="vertical-align:top;">:</td><td><div>/Users/subash/Dropbox/MTechSem1/1_ScriptingAndComputingEnv/web2py</div></td></tr><tr><td style="font-weight:bold;vertical-align:top;">http_accept</td><td style="vertical-align:top;">:</td><td><div>text/html,application/xhtml+xml,application/xml;q=0.9,image/webp,*/*;q=0.8</div></td></tr><tr><td style="font-weight:bold;vertical-align:top;">http_accept_encoding</td><td style="vertical-align:top;">:</td><td><div>gzip, deflate, sdch</div></td></tr><tr><td style="font-weight:bold;vertical-align:top;">http_accept_language</td><td style="vertical-align:top;">:</td><td><div>en-US,en;q=0.8</div></td></tr><tr><td style="font-weight:bold;vertical-align:top;">http_cache_control</td><td style="vertical-align:top;">:</td><td><div>max-age=0</div></td></tr><tr><td style="font-weight:bold;vertical-align:top;">http_connection</td><td style="vertical-align:top;">:</td><td><div>keep-alive</div></td></tr><tr><td style="font-weight:bold;vertical-align:top;">http_cookie</td><td style="vertical-align:top;">:</td><td><div>session_id_welcome=127.0.0.1-a8f3d30c-c2af-4c93-9944-335ffc40b382; session_id_iconnect=127.0.0.1-7b914d5b-a2d4-4719-95eb-1c8121ef8cfb; session_id_admin=127.0.0.1-38c33bd0-9e9b-468f-b01c-972268960f28</div></td></tr><tr><td style="font-weight:bold;vertical-align:top;">http_host</td><td style="vertical-align:top;">:</td><td><div>127.0.0.1:8000</div></td></tr><tr><td style="font-weight:bold;vertical-align:top;">http_referer</td><td style="vertical-align:top;">:</td><td><div>http://127.0.0.1:8000/iConnect/default/homePremium</div></td></tr><tr><td style="font-weight:bold;vertical-align:top;">http_upgrade_insecure_requests</td><td style="vertical-align:top;">:</td><td><div>1</div></td></tr><tr><td style="font-weight:bold;vertical-align:top;">http_user_agent</td><td style="vertical-align:top;">:</td><td><div>Mozilla/5.0 (Macintosh; Intel Mac OS X 10_11_0) AppleWebKit/537.36 (KHTML, like Gecko) Chrome/46.0.2490.86 Safari/537.36</div></td></tr><tr><td style="font-weight:bold;vertical-align:top;">is_jython</td><td style="vertical-align:top;">:</td><td><div>False</div></td></tr><tr><td style="font-weight:bold;vertical-align:top;">is_pypy</td><td style="vertical-align:top;">:</td><td><div>False</div></td></tr><tr><td style="font-weight:bold;vertical-align:top;">is_source</td><td style="vertical-align:top;">:</td><td><div>True</div></td></tr><tr><td style="font-weight:bold;vertical-align:top;">local_hosts</td><td style="vertical-align:top;">:</td><td><div><table><tr><td><div>apples-macbook-pro.local</div></td></tr><tr><td><div>fe80::ae87:a3ff:fe39:5176%en4</div></td></tr><tr><td><div>::ffff:127.0.0.1</div></td></tr><tr><td><div>::1</div></td></tr><tr><td><div>10.1.131.132</div></td></tr><tr><td><div>apples-MacBook-Pro.local</div></td></tr><tr><td><div>127.0.0.1</div></td></tr></table></div></td></tr><tr><td style="font-weight:bold;vertical-align:top;">path_info</td><td style="vertical-align:top;">:</td><td><div>/iConnect/default/fullList</div></td></tr><tr><td style="font-weight:bold;vertical-align:top;">query_string</td><td style="vertical-align:top;">:</td><td><div></div></td></tr><tr><td style="font-weight:bold;vertical-align:top;">remote_addr</td><td style="vertical-align:top;">:</td><td><div>127.0.0.1</div></td></tr><tr><td style="font-weight:bold;vertical-align:top;">remote_port</td><td style="vertical-align:top;">:</td><td><div>49605</div></td></tr><tr><td style="font-weight:bold;vertical-align:top;">request_method</td><td style="vertical-align:top;">:</td><td><div>GET</div></td></tr><tr><td style="font-weight:bold;vertical-align:top;">request_uri</td><td style="vertical-align:top;">:</td><td><div>/iConnect/default/fullList</div></td></tr><tr><td style="font-weight:bold;vertical-align:top;">script_name</td><td style="vertical-align:top;">:</td><td><div></div></td></tr><tr><td style="font-weight:bold;vertical-align:top;">server_name</td><td style="vertical-align:top;">:</td><td><div>apples-MacBook-Pro.local</div></td></tr><tr><td style="font-weight:bold;vertical-align:top;">server_port</td><td style="vertical-align:top;">:</td><td><div>8000</div></td></tr><tr><td style="font-weight:bold;vertical-align:top;">server_protocol</td><td style="vertical-align:top;">:</td><td><div>HTTP/1.1</div></td></tr><tr><td style="font-weight:bold;vertical-align:top;">server_software</td><td style="vertical-align:top;">:</td><td><div>Rocket 1.2.6</div></td></tr><tr><td style="font-weight:bold;vertical-align:top;">web2py_path</td><td style="vertical-align:top;">:</td><td><div>/Users/subash/Dropbox/MTechSem1/1_ScriptingAndComputingEnv/web2py</div></td></tr><tr><td style="font-weight:bold;vertical-align:top;">web2py_version</td><td style="vertical-align:top;">:</td><td><div>2.12.3-stable+timestamp.2015.08.19.00.18.03</div></td></tr><tr><td style="font-weight:bold;vertical-align:top;">wsgi.errors</td><td style="vertical-align:top;">:</td><td><div>&lt;open file &#x27;&lt;stderr&gt;&#x27;, mode &#x27;w&#x27; at 0x10280e1e0&gt;</div></td></tr><tr><td style="font-weight:bold;vertical-align:top;">wsgi.file_wrapper</td><td style="vertical-align:top;">:</td><td><div>&lt;class wsgiref.util.FileWrapper at 0x10377d668&gt;</div></td></tr><tr><td style="font-weight:bold;vertical-align:top;">wsgi.input</td><td style="vertical-align:top;">:</td><td><div>&lt;socket._fileobject object at 0x10a175dd0&gt;</div></td></tr><tr><td style="font-weight:bold;vertical-align:top;">wsgi.multiprocess</td><td style="vertical-align:top;">:</td><td><div>False</div></td></tr><tr><td style="font-weight:bold;vertical-align:top;">wsgi.multithread</td><td style="vertical-align:top;">:</td><td><div>True</div></td></tr><tr><td style="font-weight:bold;vertical-align:top;">wsgi.run_once</td><td style="vertical-align:top;">:</td><td><div>False</div></td></tr><tr><td style="font-weight:bold;vertical-align:top;">wsgi.url_scheme</td><td style="vertical-align:top;">:</td><td><div>http</div></td></tr><tr><td style="font-weight:bold;vertical-align:top;">wsgi.version</td><td style="vertical-align:top;">:</td><td><div><table><tr><td><div>1</div></td></tr><tr><td><div>0</div></td></tr></table></div></td></tr><tr><td style="font-weight:bold;vertical-align:top;">wsgi_errors</td><td style="vertical-align:top;">:</td><td><div>&lt;open file &#x27;&lt;stderr&gt;&#x27;, mode &#x27;w&#x27; at 0x10280e1e0&gt;</div></td></tr><tr><td style="font-weight:bold;vertical-align:top;">wsgi_file_wrapper</td><td style="vertical-align:top;">:</td><td><div>&lt;class wsgiref.util.FileWrapper at 0x10377d668&gt;</div></td></tr><tr><td style="font-weight:bold;vertical-align:top;">wsgi_input</td><td style="vertical-align:top;">:</td><td><div>&lt;socket._fileobject object at 0x10a175dd0&gt;</div></td></tr><tr><td style="font-weight:bold;vertical-align:top;">wsgi_multiprocess</td><td style="vertical-align:top;">:</td><td><div>False</div></td></tr><tr><td style="font-weight:bold;vertical-align:top;">wsgi_multithread</td><td style="vertical-align:top;">:</td><td><div>True</div></td></tr><tr><td style="font-weight:bold;vertical-align:top;">wsgi_run_once</td><td style="vertical-align:top;">:</td><td><div>False</div></td></tr><tr><td style="font-weight:bold;vertical-align:top;">wsgi_url_scheme</td><td style="vertical-align:top;">:</td><td><div>http</div></td></tr><tr><td style="font-weight:bold;vertical-align:top;">wsgi_version</td><td style="vertical-align:top;">:</td><td><div><table><tr><td><div>1</div></td></tr><tr><td><div>0</div></td></tr></table></div></td></tr></table></div></td></tr><tr><td style="font-weight:bold;vertical-align:top;">extension</td><td style="vertical-align:top;">:</td><td><div>html</div></td></tr><tr><td style="font-weight:bold;vertical-align:top;">folder</td><td style="vertical-align:top;">:</td><td><div>/Users/subash/Dropbox/MTechSem1/1_ScriptingAndComputingEnv/web2py/applications/iConnect/</div></td></tr><tr><td style="font-weight:bold;vertical-align:top;">function</td><td style="vertical-align:top;">:</td><td><div>fullList</div></td></tr><tr><td style="font-weight:bold;vertical-align:top;">global_settings</td><td style="vertical-align:top;">:</td><td><div><table><tr><td style="font-weight:bold;vertical-align:top;">app_folders</td><td style="vertical-align:top;">:</td><td><div>set([&#x27;/Users/subash/Dropbox/MTechSem1/1_ScriptingAndComputingEnv/web2py/applications/iConnect/&#x27;, &#x27;/Users/subash/Dropbox/MTechSem1/1_ScriptingAndComputingEnv/web2py/applications/admin/&#x27;, &#x27;/Users/subash/Dropbox/MTechSem1/1_ScriptingAndComputingEnv/web2py/applications/welcome/&#x27;])</div></td></tr><tr><td style="font-weight:bold;vertical-align:top;">applications_parent</td><td style="vertical-align:top;">:</td><td><div>/Users/subash/Dropbox/MTechSem1/1_ScriptingAndComputingEnv/web2py</div></td></tr><tr><td style="font-weight:bold;vertical-align:top;">cmd_args</td><td style="vertical-align:top;">:</td><td><div><table></table></div></td></tr><tr><td style="font-weight:bold;vertical-align:top;">cmd_options</td><td style="vertical-align:top;">:</td><td><div>&lt;Values at 0x10400a1b8: {&#x27;verbose&#x27;: False, &#x27;ip&#x27;: &#x27;127.0.0.1&#x27;, &#x27;debuglevel&#x27;: 30, &#x27;with_scheduler&#x27;: False, &#x27;ips&#x27;: [&#x27;10.1.131.132&#x27;, &#x27;fe80::ae87:a3ff:fe39:5176%en4&#x27;], &#x27;shutdown_timeout&#x27;: 5, &#x27;taskbar&#x27;: False, &#x27;with_coverage&#x27;: False, &#x27;scheduler_groups&#x27;: None, &#x27;port&#x27;: 8000, &#x27;maxthreads&#x27;: None, &#x27;softcron&#x27;: False, &#x27;server_name&#x27;: &#x27;apples-MacBook-Pro.local&#x27;, &#x27;bpython&#x27;: False, &#x27;nogui&#x27;: False, &#x27;pid_filename&#x27;: &#x27;httpserver.pid&#x27;, &#x27;print_errors&#x27;: False, &#x27;extcron&#x27;: False, &#x27;runcron&#x27;: False, &#x27;run_system_tests&#x27;: False, &#x27;test&#x27;: None, &#x27;folder&#x27;: &#x27;/Users/subash/Dropbox/MTechSem1/1_ScriptingAndComputingEnv/web2py&#x27;, &#x27;config&#x27;: &#x27;&#x27;, &#x27;minthreads&#x27;: None, &#x27;shell&#x27;: None, &#x27;run&#x27;: &#x27;&#x27;, &#x27;log_filename&#x27;: &#x27;httpserver.log&#x27;, &#x27;profiler_dir&#x27;: None, &#x27;args&#x27;: [&#x27;&#x27;], &#x27;socket_timeout&#x27;: 5, &#x27;ssl_ca_certificate&#x27;: None, &#x27;scheduler&#x27;: None, &#x27;interfaces&#x27;: None, &#x27;ssl_private_key&#x27;: &#x27;&#x27;, &#x27;gae&#x27;: None, &#x27;password&#x27;: &#x27;&lt;ask&gt;&#x27;, &#x27;request_queue_size&#x27;: 5, &#x27;ssl_certificate&#x27;: &#x27;&#x27;, &#x27;cronjob&#x27;: False, &#x27;numthreads&#x27;: None, &#x27;quiet&#x27;: False, &#x27;import_models&#x27;: False, &#x27;timeout&#x27;: 10, &#x27;plain&#x27;: False, &#x27;nobanner&#x27;: False}&gt;</div></td></tr><tr><td style="font-weight:bold;vertical-align:top;">db_sessions</td><td style="vertical-align:top;">:</td><td><div>set([])</div></td></tr><tr><td style="font-weight:bold;vertical-align:top;">debugging</td><td style="vertical-align:top;">:</td><td><div>False</div></td></tr><tr><td style="font-weight:bold;vertical-align:top;">gluon_parent</td><td style="vertical-align:top;">:</td><td><div>/Users/subash/Dropbox/MTechSem1/1_ScriptingAndComputingEnv/web2py</div></td></tr><tr><td style="font-weight:bold;vertical-align:top;">is_jython</td><td style="vertical-align:top;">:</td><td><div>False</div></td></tr><tr><td style="font-weight:bold;vertical-align:top;">is_pypy</td><td style="vertical-align:top;">:</td><td><div>False</div></td></tr><tr><td style="font-weight:bold;vertical-align:top;">is_source</td><td style="vertical-align:top;">:</td><td><div>True</div></td></tr><tr><td style="font-weight:bold;vertical-align:top;">local_hosts</td><td style="vertical-align:top;">:</td><td><div><table><tr><td><div>apples-macbook-pro.local</div></td></tr><tr><td><div>fe80::ae87:a3ff:fe39:5176%en4</div></td></tr><tr><td><div>::ffff:127.0.0.1</div></td></tr><tr><td><div>::1</div></td></tr><tr><td><div>10.1.131.132</div></td></tr><tr><td><div>apples-MacBook-Pro.local</div></td></tr><tr><td><div>127.0.0.1</div></td></tr></table></div></td></tr><tr><td style="font-weight:bold;vertical-align:top;">web2py_version</td><td style="vertical-align:top;">:</td><td><div>2.12.3-stable+timestamp.2015.08.19.00.18.03</div></td></tr></table></div></td></tr><tr><td style="font-weight:bold;vertical-align:top;">is_https</td><td style="vertical-align:top;">:</td><td><div>False</div></td></tr><tr><td style="font-weight:bold;vertical-align:top;">is_local</td><td style="vertical-align:top;">:</td><td><div>True</div></td></tr><tr><td style="font-weight:bold;vertical-align:top;">is_restful</td><td style="vertical-align:top;">:</td><td><div>False</div></td></tr><tr><td style="font-weight:bold;vertical-align:top;">is_sheduler</td><td style="vertical-align:top;">:</td><td><div>None</div></td></tr><tr><td style="font-weight:bold;vertical-align:top;">is_shell</td><td style="vertical-align:top;">:</td><td><div>None</div></td></tr><tr><td style="font-weight:bold;vertical-align:top;">now</td><td style="vertical-align:top;">:</td><td><div>datetime.datetime(2015, 11, 20, 22, 51, 14, 270906)</div></td></tr><tr><td style="font-weight:bold;vertical-align:top;">raw_args</td><td style="vertical-align:top;">:</td><td><div></div></td></tr><tr><td style="font-weight:bold;vertical-align:top;">raw_extension</td><td style="vertical-align:top;">:</td><td><div>None</div></td></tr><tr><td style="font-weight:bold;vertical-align:top;">url</td><td style="vertical-align:top;">:</td><td><div>/iConnect/default/fullList</div></td></tr><tr><td style="font-weight:bold;vertical-align:top;">utcnow</td><td style="vertical-align:top;">:</td><td><div>datetime.datetime(2015, 11, 20, 17, 21, 14, 270916)</div></td></tr><tr><td style="font-weight:bold;vertical-align:top;">wsgi</td><td style="vertical-align:top;">:</td><td><div>&lt;gluon.main.LazyWSGI object at 0x10a1b7f90&gt;</div></td></tr></table></div>'
tRp57
sS'frames'
p58
(lp59
(dp60
S'file'
p61
S'/Users/subash/Dropbox/MTechSem1/1_ScriptingAndComputingEnv/web2py/gluon/restricted.py'
p62
sS'dump'
p63
(dp64
S'environment'
p65
S"{'A': <class 'gluon.html.A'>, 'ANY_OF': <class 'gluon.validators.ANY_OF'>, 'ASSIGNJS': <function ASSIGNJS>, 'AppConfig': <function AppConfig>, 'Auth': <class 'gluon.tools.Auth'>, 'B': <class 'gluon.html.B'>, 'BEAUTIFY': <class 'gluon.html.BEAUTIFY'>, 'BODY': <class 'gluon.html.BODY'>, 'BR': <class 'gluon.html.BR'>, 'BUTTON': <class 'gluon.html.BUTTON'>, ...}"
p66
sS'ccode'
p67
S'<code object <module> at 0x10a16c7b0, file "/Use...ations/iConnect/controllers/default.py", line 11>'
p68
ssS'lnum'
p69
I227
sS'lines'
p70
(dp71
I224
S'            ccode = code'
p72
sI225
S'        else:'
p73
sI226
S'            ccode = compile2(code, layer)'
p74
sI227
S'        exec ccode in environment'
p75
sI228
S'    except HTTP:'
p76
sI229
S'        raise'
p77
sI230
S'    except RestrictedError:'
p78
sI231
S'        # do not encapsulate (obfuscate) the original RestrictedError'
p79
sI222
S'    try:'
p80
sI223
S'        if isinstance(code, types.CodeType):'
p81
ssS'call'
p82
S"(code='# -*- coding: utf-8 -*-\\n# this file is released ...e()\\n\\n\\n\\nresponse._vars=response._caller(fullList)\\n', environment={'A': <class 'gluon.html.A'>, 'ANY_OF': <class 'gluon.validators.ANY_OF'>, 'ASSIGNJS': <function ASSIGNJS>, 'AppConfig': <function AppConfig>, 'Auth': <class 'gluon.tools.Auth'>, 'B': <class 'gluon.html.B'>, 'BEAUTIFY': <class 'gluon.html.BEAUTIFY'>, 'BODY': <class 'gluon.html.BODY'>, 'BR': <class 'gluon.html.BR'>, 'BUTTON': <class 'gluon.html.BUTTON'>, ...}, layer='/Users/subash/Dropbox/MTechSem1/1_ScriptingAndCo...b2py/applications/iConnect/controllers/default.py')"
p83
sS'func'
p84
S'restricted'
p85
sa(dp86
g61
S'/Users/subash/Dropbox/MTechSem1/1_ScriptingAndComputingEnv/web2py/applications/iConnect/controllers/default.py'
p87
sg63
(dp88
sg69
I358
sg70
(dp89
I352
S'    supports xml, json, xmlrpc, jsonrpc, amfrpc, rss, csv'
p90
sI353
S'    """'
p91
sI354
S'    return service()'
p92
sI355
S''
sI356
S''
sI347
S'def call():'
p93
sI348
S'    """'
p94
sI349
S'    exposes services. for example:'
p95
sI350
S'    http://..../[app]/default/call/jsonrpc'
p96
sI351
S'    decorate with @services.jsonrpc the functions to expose'
p97
ssg82
S'()'
p98
sg84
S'<module>'
p99
sa(dp100
g61
S'/Users/subash/Dropbox/MTechSem1/1_ScriptingAndComputingEnv/web2py/gluon/globals.py'
p101
sg63
(dp102
S'self'
p103
S'undefined'
p104
sS'f'
S'<function fullList>'
p105
ssg69
I412
sg70
(dp106
I416
S"        self.generic_patterns = ['*']"
p107
sI407
S"        self.flash = ''            # used by the default view layout"
p108
sI408
S'        self.meta = Storage()      # used by web2py_ajax.html'
p109
sI409
S'        self.menu = []             # used by the default view layout'
p110
sI410
S'        self.files = []            # used by web2py_ajax.html'
p111
sI411
S'        self._vars = None'
p112
sI412
S'        self._caller = lambda f: f()'
p113
sI413
S'        self._view_environment = None'
p114
sI414
S'        self._custom_commit = None'
p115
sI415
S'        self._custom_rollback = None'
p116
ssg82
S'(f=<function fullList>)'
p117
sg84
S'<lambda>'
p118
sa(dp119
g61
S'/Users/subash/Dropbox/MTechSem1/1_ScriptingAndComputingEnv/web2py/gluon/tools.py'
p120
sg63
(dp121
S'action'
p122
S'<function fullList>'
p123
sS'a'
S'()'
p124
sS'b'
g45
ssg69
I3774
sg70
(dp125
I3776
S'            f.__name__ = action.__name__'
p126
sI3777
S'            f.__dict__.update(action.__dict__)'
p127
sI3778
S'            return f'
p128
sI3769
S'                    flag = condition'
p129
sI3770
S'                if not flag:'
p130
sI3771
S'                    current.session.flash = self.messages.access_denied'
p131
sI3772
S'                    return call_or_redirect('
p132
sI3773
S'                        self.settings.on_failed_authorization)'
p133
sI3774
S'                return action(*a, **b)'
p134
sI3775
S'            f.__doc__ = action.__doc__'
p135
ssg82
S'(*a=(), **b={})'
p136
sg84
S'f'
sa(dp137
g61
S'/Users/subash/Dropbox/MTechSem1/1_ScriptingAndComputingEnv/web2py/applications/iConnect/controllers/default.py'
p138
sg63
(dp139
S'users'
p140
g104
sS'auth.user'
p141
S"<Row {'last_name': 'penumatasa', 'pic': 'auth_us...a', 'phoneNo': '2345665456786', 'caste': 'kapu'}>"
p142
sS').select'
p143
g104
sS'global auth'
p144
S'<gluon.tools.Auth object>'
p145
sS'db.auth_user'
p146
S'<Table auth_user (id,first_name,last_name,email,...e,skinTone,smoke,drink,diet,likes,spams,premium)>'
p147
sS'auth.user.gender'
p148
S"'Female'"
p149
sS'db.auth_user.dender'
p150
g104
sS'global db'
p151
S'<DAL uri="sqlite://storage.sqlite">'
p152
ssg69
I283
sg70
(dp153
I278
S"        redirect(URL('default','admin'))"
p154
sI279
S"    if auth.user.premium=='0':"
p155
sI280
S'        session.flash="You are a Free User. Upgrade to Premium"'
p156
sI281
S"        redirect(URL('default','payment'))"
p157
sI282
S''
sI283
S'    users=db(db.auth_user.dender!=auth.user.gender).select()'
p158
sI284
S''
sI285
S'    return locals()'
p159
sI286
S''
sI287
S''
ssg82
S'()'
p160
sg84
S'fullList'
p161
sa(dp162
g61
S'/Users/subash/Dropbox/MTechSem1/1_ScriptingAndComputingEnv/web2py/gluon/packages/dal/pydal/helpers/classes.py'
p163
sg63
(dp164
S'builtinAttributeError'
p165
S"<type 'exceptions.AttributeError'>"
p166
ssg69
I30
sg70
(dp167
I32
S'    __setitem__ = object.__setattr__'
p168
sI33
S''
sI34
S'    def __delitem__(self, key):'
p169
sI25
S''
sI26
S'    def __getattr__(self, key):'
p170
sI27
S'        try:'
p171
sI28
S'            return self.__dict__.__getitem__(str(key))'
p172
sI29
S'        except:'
p173
sI30
S'            raise AttributeError'
p174
sI31
S''
ssg82
S"(self=<Table auth_user (id,first_name,last_name,email,...e,skinTone,smoke,drink,diet,likes,spams,premium)>, key='dender')"
p175
sg84
S'__getattr__'
p176
sasS'pyver'
p177
S'Python 2.7.10: /usr/bin/python (prefix: /System/Library/Frameworks/Python.framework/Versions/2.7)'
p178
sS'session'
p179
g56
(S's\x15\x13\x00\x00<div><table><tr><td style="font-weight:bold;vertical-align:top;">auth</td><td style="vertical-align:top;">:</td><td><div><table><tr><td style="font-weight:bold;vertical-align:top;">expiration</td><td style="vertical-align:top;">:</td><td><div>3600</div></td></tr><tr><td style="font-weight:bold;vertical-align:top;">hmac_key</td><td style="vertical-align:top;">:</td><td><div>2ec1575f-1656-4837-8616-d126f1ffa1a0</div></td></tr><tr><td style="font-weight:bold;vertical-align:top;">last_visit</td><td style="vertical-align:top;">:</td><td><div>datetime.datetime(2015, 11, 20, 22, 48, 51, 497265)</div></td></tr><tr><td style="font-weight:bold;vertical-align:top;">remember_me</td><td style="vertical-align:top;">:</td><td><div>False</div></td></tr><tr><td style="font-weight:bold;vertical-align:top;">user</td><td style="vertical-align:top;">:</td><td><div><table><tr><td style="font-weight:bold;vertical-align:top;">age</td><td style="vertical-align:top;">:</td><td><div>24L</div></td></tr><tr><td style="font-weight:bold;vertical-align:top;">bDate</td><td style="vertical-align:top;">:</td><td><div>datetime.date(1991, 8, 4)</div></td></tr><tr><td style="font-weight:bold;vertical-align:top;">bodyType</td><td style="vertical-align:top;">:</td><td><div>Average</div></td></tr><tr><td style="font-weight:bold;vertical-align:top;">caste</td><td style="vertical-align:top;">:</td><td><div>kapu</div></td></tr><tr><td style="font-weight:bold;vertical-align:top;">city</td><td style="vertical-align:top;">:</td><td><div>rajmandry</div></td></tr><tr><td style="font-weight:bold;vertical-align:top;">country</td><td style="vertical-align:top;">:</td><td><div>india</div></td></tr><tr><td style="font-weight:bold;vertical-align:top;">diet</td><td style="vertical-align:top;">:</td><td><div>Non-veg</div></td></tr><tr><td style="font-weight:bold;vertical-align:top;">drink</td><td style="vertical-align:top;">:</td><td><div>Frequent</div></td></tr><tr><td style="font-weight:bold;vertical-align:top;">email</td><td style="vertical-align:top;">:</td><td><div>van@gmail.com</div></td></tr><tr><td style="font-weight:bold;vertical-align:top;">first_name</td><td style="vertical-align:top;">:</td><td><div>vanaja</div></td></tr><tr><td style="font-weight:bold;vertical-align:top;">gender</td><td style="vertical-align:top;">:</td><td><div>Female</div></td></tr><tr><td style="font-weight:bold;vertical-align:top;">height</td><td style="vertical-align:top;">:</td><td><div>5.6</div></td></tr><tr><td style="font-weight:bold;vertical-align:top;">id</td><td style="vertical-align:top;">:</td><td><div>13L</div></td></tr><tr><td style="font-weight:bold;vertical-align:top;">last_name</td><td style="vertical-align:top;">:</td><td><div>penumatasa</div></td></tr><tr><td style="font-weight:bold;vertical-align:top;">likes</td><td style="vertical-align:top;">:</td><td><div>4L</div></td></tr><tr><td style="font-weight:bold;vertical-align:top;">motherTongue</td><td style="vertical-align:top;">:</td><td><div>Telugu</div></td></tr><tr><td style="font-weight:bold;vertical-align:top;">phoneNo</td><td style="vertical-align:top;">:</td><td><div>2345665456786</div></td></tr><tr><td style="font-weight:bold;vertical-align:top;">pic</td><td style="vertical-align:top;">:</td><td><div>auth_user.pic.99b32ff6cd4b0402.41676e65732d48617070792d69636f6e2e706e67.png</div></td></tr><tr><td style="font-weight:bold;vertical-align:top;">premium</td><td style="vertical-align:top;">:</td><td><div>1</div></td></tr><tr><td style="font-weight:bold;vertical-align:top;">registration_id</td><td style="vertical-align:top;">:</td><td><div></div></td></tr><tr><td style="font-weight:bold;vertical-align:top;">registration_key</td><td style="vertical-align:top;">:</td><td><div></div></td></tr><tr><td style="font-weight:bold;vertical-align:top;">religion</td><td style="vertical-align:top;">:</td><td><div>hindu</div></td></tr><tr><td style="font-weight:bold;vertical-align:top;">reset_password_key</td><td style="vertical-align:top;">:</td><td><div></div></td></tr><tr><td style="font-weight:bold;vertical-align:top;">skinTone</td><td style="vertical-align:top;">:</td><td><div>Fair</div></td></tr><tr><td style="font-weight:bold;vertical-align:top;">smoke</td><td style="vertical-align:top;">:</td><td><div>No</div></td></tr><tr><td style="font-weight:bold;vertical-align:top;">spams</td><td style="vertical-align:top;">:</td><td><div>0L</div></td></tr></table></div></td></tr><tr><td style="font-weight:bold;vertical-align:top;">user_groups</td><td style="vertical-align:top;">:</td><td><div><table><tr><td style="font-weight:bold;vertical-align:top;">13</td><td style="vertical-align:top;">:</td><td><div>user_13</div></td></tr></table></div></td></tr></table></div></td></tr><tr><td style="font-weight:bold;vertical-align:top;">flash</td><td style="vertical-align:top;">:</td><td><div>None</div></td></tr></table></div>'
tRp180
sS'etype'
p181
S"<type 'exceptions.AttributeError'>"
p182
sS'date'
p183
S'Fri Nov 20 22:51:14 2015'
p184
sS'response'
p185
g56
(S's\x81 \x00\x00<div><table><tr><td style="font-weight:bold;vertical-align:top;">body</td><td style="vertical-align:top;">:</td><td><div>&lt;cStringIO.StringO object at 0x10a1b5110&gt;</div></td></tr><tr><td style="font-weight:bold;vertical-align:top;">cookies</td><td style="vertical-align:top;">:</td><td><div><table><tr><td style="font-weight:bold;vertical-align:top;">session_id_iconnect</td><td style="vertical-align:top;">:</td><td><div>127.0.0.1-7b914d5b-a2d4-4719-95eb-1c8121ef8cfb<table><tr><td style="font-weight:bold;vertical-align:top;">comment</td><td style="vertical-align:top;">:</td><td><div></div></td></tr><tr><td style="font-weight:bold;vertical-align:top;">domain</td><td style="vertical-align:top;">:</td><td><div></div></td></tr><tr><td style="font-weight:bold;vertical-align:top;">expires</td><td style="vertical-align:top;">:</td><td><div></div></td></tr><tr><td style="font-weight:bold;vertical-align:top;">httponly</td><td style="vertical-align:top;">:</td><td><div></div></td></tr><tr><td style="font-weight:bold;vertical-align:top;">max-age</td><td style="vertical-align:top;">:</td><td><div></div></td></tr><tr><td style="font-weight:bold;vertical-align:top;">path</td><td style="vertical-align:top;">:</td><td><div>/</div></td></tr><tr><td style="font-weight:bold;vertical-align:top;">secure</td><td style="vertical-align:top;">:</td><td><div></div></td></tr><tr><td style="font-weight:bold;vertical-align:top;">version</td><td style="vertical-align:top;">:</td><td><div></div></td></tr></table></div></td></tr></table></div></td></tr><tr><td style="font-weight:bold;vertical-align:top;">delimiters</td><td style="vertical-align:top;">:</td><td><div><table><tr><td><div>{{</div></td></tr><tr><td><div>}}</div></td></tr></table></div></td></tr><tr><td style="font-weight:bold;vertical-align:top;">files</td><td style="vertical-align:top;">:</td><td><div><table></table></div></td></tr><tr><td style="font-weight:bold;vertical-align:top;">flash</td><td style="vertical-align:top;">:</td><td><div></div></td></tr><tr><td style="font-weight:bold;vertical-align:top;">form_label_separator</td><td style="vertical-align:top;">:</td><td><div></div></td></tr><tr><td style="font-weight:bold;vertical-align:top;">formstyle</td><td style="vertical-align:top;">:</td><td><div>bootstrap3_inline</div></td></tr><tr><td style="font-weight:bold;vertical-align:top;">generic_patterns</td><td style="vertical-align:top;">:</td><td><div><table><tr><td><div>*</div></td></tr></table></div></td></tr><tr><td style="font-weight:bold;vertical-align:top;">google_analytics_id</td><td style="vertical-align:top;">:</td><td><div>None</div></td></tr><tr><td style="font-weight:bold;vertical-align:top;">headers</td><td style="vertical-align:top;">:</td><td><div><table><tr><td style="font-weight:bold;vertical-align:top;">X-Powered-By</td><td style="vertical-align:top;">:</td><td><div>web2py</div></td></tr></table></div></td></tr><tr><td style="font-weight:bold;vertical-align:top;">logo</td><td style="vertical-align:top;">:</td><td><div><a class="navbar-brand" href="/iConnect/default/index"><b>iConnect</b>&trade;&nbsp;</a></div></td></tr><tr><td style="font-weight:bold;vertical-align:top;">menu</td><td style="vertical-align:top;">:</td><td><div><table><tr><td><div><table><tr><td><div>Home</div></td></tr><tr><td><div>False</div></td></tr><tr><td><div>/iConnect/default/homeFree</div></td></tr><tr><td><div><table></table></div></td></tr></table></div></td></tr><tr><td><div><table><tr><td><div>My Profile</div></td></tr><tr><td><div>False</div></td></tr><tr><td><div>/iConnect/default/myProfileFree</div></td></tr><tr><td><div><table></table></div></td></tr></table></div></td></tr><tr><td><div><table><tr><td><div>My Wishlist</div></td></tr><tr><td><div>False</div></td></tr><tr><td><div>/iConnect/default/wishList</div></td></tr><tr><td><div><table></table></div></td></tr></table></div></td></tr><tr><td><div><table><tr><td><div>Full List</div></td></tr><tr><td><div>False</div></td></tr><tr><td><div>/iConnect/default/fullList</div></td></tr><tr><td><div><table></table></div></td></tr></table></div></td></tr></table></div></td></tr><tr><td style="font-weight:bold;vertical-align:top;">meta</td><td style="vertical-align:top;">:</td><td><div><table><tr><td style="font-weight:bold;vertical-align:top;">author</td><td style="vertical-align:top;">:</td><td><div>Your Name &lt;you@example.com&gt;</div></td></tr><tr><td style="font-weight:bold;vertical-align:top;">description</td><td style="vertical-align:top;">:</td><td><div>a cool new app</div></td></tr><tr><td style="font-weight:bold;vertical-align:top;">generator</td><td style="vertical-align:top;">:</td><td><div>Web2py Web Framework</div></td></tr><tr><td style="font-weight:bold;vertical-align:top;">keywords</td><td style="vertical-align:top;">:</td><td><div>web2py, python, framework</div></td></tr></table></div></td></tr><tr><td style="font-weight:bold;vertical-align:top;">models_to_run</td><td style="vertical-align:top;">:</td><td><div><table><tr><td><div>^\\w+\\.py$</div></td></tr><tr><td><div>^default/\\w+\\.py$</div></td></tr><tr><td><div>^default/fullList/\\w+\\.py$</div></td></tr></table></div></td></tr><tr><td style="font-weight:bold;vertical-align:top;">postprocessing</td><td style="vertical-align:top;">:</td><td><div><table></table></div></td></tr><tr><td style="font-weight:bold;vertical-align:top;">session_client</td><td style="vertical-align:top;">:</td><td><div>127.0.0.1</div></td></tr><tr><td style="font-weight:bold;vertical-align:top;">session_cookie_compression_level</td><td style="vertical-align:top;">:</td><td><div>None</div></td></tr><tr><td style="font-weight:bold;vertical-align:top;">session_cookie_expires</td><td style="vertical-align:top;">:</td><td><div>None</div></td></tr><tr><td style="font-weight:bold;vertical-align:top;">session_cookie_key</td><td style="vertical-align:top;">:</td><td><div>None</div></td></tr><tr><td style="font-weight:bold;vertical-align:top;">session_data_name</td><td style="vertical-align:top;">:</td><td><div>session_data_iconnect</div></td></tr><tr><td style="font-weight:bold;vertical-align:top;">session_file</td><td style="vertical-align:top;">:</td><td><div>&lt;open file &#x27;/Users/subash/Dropbox/MTechSem1/1_ScriptingAndComputingEnv/web2py/applications/iConnect/sessions/18e/0f8/127.0.0.1-7b914d5b-a2d4-4719-95eb-1c8121ef8cfb&#x27;, mode &#x27;rb+&#x27; at 0x10a173f60&gt;</div></td></tr><tr><td style="font-weight:bold;vertical-align:top;">session_filename</td><td style="vertical-align:top;">:</td><td><div>/Users/subash/Dropbox/MTechSem1/1_ScriptingAndComputingEnv/web2py/applications/iConnect/sessions/127.0.0.1-7b914d5b-a2d4-4719-95eb-1c8121ef8cfb</div></td></tr><tr><td style="font-weight:bold;vertical-align:top;">session_hash</td><td style="vertical-align:top;">:</td><td><div>1a9223ebba24113b98861bc691ff6e64</div></td></tr><tr><td style="font-weight:bold;vertical-align:top;">session_id</td><td style="vertical-align:top;">:</td><td><div>127.0.0.1-7b914d5b-a2d4-4719-95eb-1c8121ef8cfb</div></td></tr><tr><td style="font-weight:bold;vertical-align:top;">session_id_name</td><td style="vertical-align:top;">:</td><td><div>session_id_iconnect</div></td></tr><tr><td style="font-weight:bold;vertical-align:top;">session_locked</td><td style="vertical-align:top;">:</td><td><div>True</div></td></tr><tr><td style="font-weight:bold;vertical-align:top;">session_masterapp</td><td style="vertical-align:top;">:</td><td><div>iConnect</div></td></tr><tr><td style="font-weight:bold;vertical-align:top;">session_new</td><td style="vertical-align:top;">:</td><td><div>False</div></td></tr><tr><td style="font-weight:bold;vertical-align:top;">session_storage_type</td><td style="vertical-align:top;">:</td><td><div>file</div></td></tr><tr><td style="font-weight:bold;vertical-align:top;">status</td><td style="vertical-align:top;">:</td><td><div>200</div></td></tr><tr><td style="font-weight:bold;vertical-align:top;">subtitle</td><td style="vertical-align:top;">:</td><td><div></div></td></tr><tr><td style="font-weight:bold;vertical-align:top;">title</td><td style="vertical-align:top;">:</td><td><div>Iconnect</div></td></tr><tr><td style="font-weight:bold;vertical-align:top;">view</td><td style="vertical-align:top;">:</td><td><div>default/fullList.html</div></td></tr></table></div>'
tRp186
sS'locals'
p187
(dp188
S'self'
p189
S'<Table auth_user (id,first_name,last_name,email,...e,skinTone,smoke,drink,diet,likes,spams,premium)>'
p190
sS'key'
p191
S"'dender'"
p192
sssS'traceback'
p193
S'Traceback (most recent call last):\n  File "/Users/subash/Dropbox/MTechSem1/1_ScriptingAndComputingEnv/web2py/gluon/restricted.py", line 227, in restricted\n    exec ccode in environment\n  File "/Users/subash/Dropbox/MTechSem1/1_ScriptingAndComputingEnv/web2py/applications/iConnect/controllers/default.py", line 358, in <module>\n  File "/Users/subash/Dropbox/MTechSem1/1_ScriptingAndComputingEnv/web2py/gluon/globals.py", line 412, in <lambda>\n    self._caller = lambda f: f()\n  File "/Users/subash/Dropbox/MTechSem1/1_ScriptingAndComputingEnv/web2py/gluon/tools.py", line 3774, in f\n    return action(*a, **b)\n  File "/Users/subash/Dropbox/MTechSem1/1_ScriptingAndComputingEnv/web2py/applications/iConnect/controllers/default.py", line 283, in fullList\n    users=db(db.auth_user.dender!=auth.user.gender).select()\n  File "/Users/subash/Dropbox/MTechSem1/1_ScriptingAndComputingEnv/web2py/gluon/packages/dal/pydal/helpers/classes.py", line 30, in __getattr__\n    raise AttributeError\nAttributeError\n'
p194
s.