(dp1
S'output'
p2
S"<type 'exceptions.AttributeError'> 'NoneType' object has no attribute 'id'"
p3
sS'layer'
p4
S'/Users/subash/Dropbox/MTechSem1/1_ScriptingAndComputingEnv/web2py/applications/iConnect/models/db1.py'
p5
sS'code'
p6
S"# -*- coding: utf-8 -*-\n\n# to track user interests\ndb.define_table('Interests',\n\tField('userId','reference auth_user',unique=True,readable=False,writable=False,default=auth.user.id),\n\tField('Singing','text',requires=IS_IN_SET(('Yes','No'))),\n\tField('Dancing','text',requires=IS_IN_SET(('Yes','No'))),\n\tField('Phtography','text',requires=IS_IN_SET(('Yes','No'))),\n\tField('Painting','text',requires=IS_IN_SET(('Yes','No'))),\n\tField('Reading','text',requires=IS_IN_SET(('Yes','No'))),\n\tField('Travelling','text',requires=IS_IN_SET(('Yes','No'))),\n\tField('Movies','text',requires=IS_IN_SET(('Yes','No'))),\n\tField('Music','text',requires=IS_IN_SET(('Yes','No'))),\n\tField('Fitness','text',requires=IS_IN_SET(('Yes','No'))),\n\tField('Running','text',requires=IS_IN_SET(('Yes','No'))),\n\tField('Swimming','text',requires=IS_IN_SET(('Yes','No'))),\n\tField('Badminton','text',requires=IS_IN_SET(('Yes','No'))),\n\tField('Cricket','text',requires=IS_IN_SET(('Yes','No'))),\n\tField('Basketball','text',requires=IS_IN_SET(('Yes','No'))),\n\tField('WorkOut','text',requires=IS_IN_SET(('Yes','No'))),\n\tField('SouthIndian','text',requires=IS_IN_SET(('Yes','No'))),\n\tField('Chinese','text',requires=IS_IN_SET(('Yes','No'))),\n\tField('Continental','text',requires=IS_IN_SET(('Yes','No'))),\n\tField('Italian','text',requires=IS_IN_SET(('Yes','No')))\n\t)\n\n\n\n\n"
p7
sS'snapshot'
p8
(dp9
S'exception'
p10
(dp11
S'__hash__'
p12
S"<method-wrapper '__hash__' of exceptions.AttributeError object>"
p13
sS'__setattr__'
p14
S"<method-wrapper '__setattr__' of exceptions.AttributeError object>"
p15
sS'__reduce_ex__'
p16
S'<built-in method __reduce_ex__ of exceptions.AttributeError object>'
p17
sS'__getslice__'
p18
S"<method-wrapper '__getslice__' of exceptions.AttributeError object>"
p19
sS'__getitem__'
p20
S"<method-wrapper '__getitem__' of exceptions.AttributeError object>"
p21
sS'__setstate__'
p22
S'<built-in method __setstate__ of exceptions.AttributeError object>'
p23
sS'args'
p24
S'("\'NoneType\' object has no attribute \'id\'",)'
p25
sS'__reduce__'
p26
S'<built-in method __reduce__ of exceptions.AttributeError object>'
p27
sS'__str__'
p28
S"<method-wrapper '__str__' of exceptions.AttributeError object>"
p29
sS'__format__'
p30
S'<built-in method __format__ of exceptions.AttributeError object>'
p31
sS'__getattribute__'
p32
S"<method-wrapper '__getattribute__' of exceptions.AttributeError object>"
p33
sS'__class__'
p34
S"<type 'exceptions.AttributeError'>"
p35
sS'__unicode__'
p36
S'<built-in method __unicode__ of exceptions.AttributeError object>'
p37
sS'__delattr__'
p38
S"<method-wrapper '__delattr__' of exceptions.AttributeError object>"
p39
sS'__subclasshook__'
p40
S'<built-in method __subclasshook__ of type object>'
p41
sS'__repr__'
p42
S"<method-wrapper '__repr__' of exceptions.AttributeError object>"
p43
sS'__dict__'
p44
S'{}'
p45
sS'__sizeof__'
p46
S'<built-in method __sizeof__ of exceptions.AttributeError object>'
p47
sS'__doc__'
p48
S"'Attribute not found.'"
p49
sS'__init__'
p50
S"<method-wrapper '__init__' of exceptions.AttributeError object>"
p51
sS'__new__'
p52
S'<built-in method __new__ of type object>'
p53
ssS'evalue'
p54
S"'NoneType' object has no attribute 'id'"
p55
sS'request'
p56
cgluon.html
XML_unpickle
p57
(S'soy\x00\x00<div><table><tr><td style="font-weight:bold;vertical-align:top;">ajax</td><td style="vertical-align:top;">:</td><td><div>False</div></td></tr><tr><td style="font-weight:bold;vertical-align:top;">application</td><td style="vertical-align:top;">:</td><td><div>iConnect</div></td></tr><tr><td style="font-weight:bold;vertical-align:top;">args</td><td style="vertical-align:top;">:</td><td><div><table></table></div></td></tr><tr><td style="font-weight:bold;vertical-align:top;">cid</td><td style="vertical-align:top;">:</td><td><div>None</div></td></tr><tr><td style="font-weight:bold;vertical-align:top;">client</td><td style="vertical-align:top;">:</td><td><div>127.0.0.1</div></td></tr><tr><td style="font-weight:bold;vertical-align:top;">controller</td><td style="vertical-align:top;">:</td><td><div>default</div></td></tr><tr><td style="font-weight:bold;vertical-align:top;">cookies</td><td style="vertical-align:top;">:</td><td><div><table><tr><td style="font-weight:bold;vertical-align:top;">session_data_examples</td><td style="vertical-align:top;">:</td><td><div>9e0abf45a211bb51ce6c6c087516259e:IPzAWIn2qCxN_IIyz7BZkOFGWQYJ5NtYtl_TLUYqhLh-a0jNuiVywKux8FtGWcUDDuBMXzQ8Rp7cIdNuSqQcWn2Bo5aFLGeCuXLkUnGk5XpRShUb209VzECQv4puCCDT1yF4_qFkdXj27sVb0ruKJVSaME6CfTST43e53QiCKiqn5yrr4s2xrmxycN83Pi-jfmXfFbe_lqKnfaV6mR9UCEhdjIf-ZSbf9TI9ZDqOn1-VZaSNAVOfehceBvRswcC3M6ZR31BC7amqA6FkJc6h8lJra7MvS-EYCF1GF2JydF1lSGTo_MREtDPyLArrpVZ89z6fCx9FjLDni-gsYenIch4faQkbIR3pbLE69eddWDc=<table><tr><td style="font-weight:bold;vertical-align:top;">comment</td><td style="vertical-align:top;">:</td><td><div></div></td></tr><tr><td style="font-weight:bold;vertical-align:top;">domain</td><td style="vertical-align:top;">:</td><td><div></div></td></tr><tr><td style="font-weight:bold;vertical-align:top;">expires</td><td style="vertical-align:top;">:</td><td><div></div></td></tr><tr><td style="font-weight:bold;vertical-align:top;">httponly</td><td style="vertical-align:top;">:</td><td><div></div></td></tr><tr><td style="font-weight:bold;vertical-align:top;">max-age</td><td style="vertical-align:top;">:</td><td><div></div></td></tr><tr><td style="font-weight:bold;vertical-align:top;">path</td><td style="vertical-align:top;">:</td><td><div></div></td></tr><tr><td style="font-weight:bold;vertical-align:top;">secure</td><td style="vertical-align:top;">:</td><td><div></div></td></tr><tr><td style="font-weight:bold;vertical-align:top;">version</td><td style="vertical-align:top;">:</td><td><div></div></td></tr></table></div></td></tr><tr><td style="font-weight:bold;vertical-align:top;">session_id_admin</td><td style="vertical-align:top;">:</td><td><div>127.0.0.1-49bd2588-4c52-4231-80c0-0bbff6e42393<table><tr><td style="font-weight:bold;vertical-align:top;">comment</td><td style="vertical-align:top;">:</td><td><div></div></td></tr><tr><td style="font-weight:bold;vertical-align:top;">domain</td><td style="vertical-align:top;">:</td><td><div></div></td></tr><tr><td style="font-weight:bold;vertical-align:top;">expires</td><td style="vertical-align:top;">:</td><td><div></div></td></tr><tr><td style="font-weight:bold;vertical-align:top;">httponly</td><td style="vertical-align:top;">:</td><td><div></div></td></tr><tr><td style="font-weight:bold;vertical-align:top;">max-age</td><td style="vertical-align:top;">:</td><td><div></div></td></tr><tr><td style="font-weight:bold;vertical-align:top;">path</td><td style="vertical-align:top;">:</td><td><div></div></td></tr><tr><td style="font-weight:bold;vertical-align:top;">secure</td><td style="vertical-align:top;">:</td><td><div></div></td></tr><tr><td style="font-weight:bold;vertical-align:top;">version</td><td style="vertical-align:top;">:</td><td><div></div></td></tr></table></div></td></tr><tr><td style="font-weight:bold;vertical-align:top;">session_id_examples</td><td style="vertical-align:top;">:</td><td><div>True<table><tr><td style="font-weight:bold;vertical-align:top;">comment</td><td style="vertical-align:top;">:</td><td><div></div></td></tr><tr><td style="font-weight:bold;vertical-align:top;">domain</td><td style="vertical-align:top;">:</td><td><div></div></td></tr><tr><td style="font-weight:bold;vertical-align:top;">expires</td><td style="vertical-align:top;">:</td><td><div></div></td></tr><tr><td style="font-weight:bold;vertical-align:top;">httponly</td><td style="vertical-align:top;">:</td><td><div></div></td></tr><tr><td style="font-weight:bold;vertical-align:top;">max-age</td><td style="vertical-align:top;">:</td><td><div></div></td></tr><tr><td style="font-weight:bold;vertical-align:top;">path</td><td style="vertical-align:top;">:</td><td><div></div></td></tr><tr><td style="font-weight:bold;vertical-align:top;">secure</td><td style="vertical-align:top;">:</td><td><div></div></td></tr><tr><td style="font-weight:bold;vertical-align:top;">version</td><td style="vertical-align:top;">:</td><td><div></div></td></tr></table></div></td></tr><tr><td style="font-weight:bold;vertical-align:top;">session_id_iconnect</td><td style="vertical-align:top;">:</td><td><div>127.0.0.1-13f2aefa-8d1d-449c-933d-d634e30b84f4<table><tr><td style="font-weight:bold;vertical-align:top;">comment</td><td style="vertical-align:top;">:</td><td><div></div></td></tr><tr><td style="font-weight:bold;vertical-align:top;">domain</td><td style="vertical-align:top;">:</td><td><div></div></td></tr><tr><td style="font-weight:bold;vertical-align:top;">expires</td><td style="vertical-align:top;">:</td><td><div></div></td></tr><tr><td style="font-weight:bold;vertical-align:top;">httponly</td><td style="vertical-align:top;">:</td><td><div></div></td></tr><tr><td style="font-weight:bold;vertical-align:top;">max-age</td><td style="vertical-align:top;">:</td><td><div></div></td></tr><tr><td style="font-weight:bold;vertical-align:top;">path</td><td style="vertical-align:top;">:</td><td><div></div></td></tr><tr><td style="font-weight:bold;vertical-align:top;">secure</td><td style="vertical-align:top;">:</td><td><div></div></td></tr><tr><td style="font-weight:bold;vertical-align:top;">version</td><td style="vertical-align:top;">:</td><td><div></div></td></tr></table></div></td></tr><tr><td style="font-weight:bold;vertical-align:top;">session_id_test1</td><td style="vertical-align:top;">:</td><td><div>127.0.0.1-d82fbd50-0776-4b5e-bb46-b6b3fcf93506<table><tr><td style="font-weight:bold;vertical-align:top;">comment</td><td style="vertical-align:top;">:</td><td><div></div></td></tr><tr><td style="font-weight:bold;vertical-align:top;">domain</td><td style="vertical-align:top;">:</td><td><div></div></td></tr><tr><td style="font-weight:bold;vertical-align:top;">expires</td><td style="vertical-align:top;">:</td><td><div></div></td></tr><tr><td style="font-weight:bold;vertical-align:top;">httponly</td><td style="vertical-align:top;">:</td><td><div></div></td></tr><tr><td style="font-weight:bold;vertical-align:top;">max-age</td><td style="vertical-align:top;">:</td><td><div></div></td></tr><tr><td style="font-weight:bold;vertical-align:top;">path</td><td style="vertical-align:top;">:</td><td><div></div></td></tr><tr><td style="font-weight:bold;vertical-align:top;">secure</td><td style="vertical-align:top;">:</td><td><div></div></td></tr><tr><td style="font-weight:bold;vertical-align:top;">version</td><td style="vertical-align:top;">:</td><td><div></div></td></tr></table></div></td></tr><tr><td style="font-weight:bold;vertical-align:top;">session_id_testapp</td><td style="vertical-align:top;">:</td><td><div>127.0.0.1-8e73f3fd-e9af-4ca3-9f18-a5a178878658<table><tr><td style="font-weight:bold;vertical-align:top;">comment</td><td style="vertical-align:top;">:</td><td><div></div></td></tr><tr><td style="font-weight:bold;vertical-align:top;">domain</td><td style="vertical-align:top;">:</td><td><div></div></td></tr><tr><td style="font-weight:bold;vertical-align:top;">expires</td><td style="vertical-align:top;">:</td><td><div></div></td></tr><tr><td style="font-weight:bold;vertical-align:top;">httponly</td><td style="vertical-align:top;">:</td><td><div></div></td></tr><tr><td style="font-weight:bold;vertical-align:top;">max-age</td><td style="vertical-align:top;">:</td><td><div></div></td></tr><tr><td style="font-weight:bold;vertical-align:top;">path</td><td style="vertical-align:top;">:</td><td><div></div></td></tr><tr><td style="font-weight:bold;vertical-align:top;">secure</td><td style="vertical-align:top;">:</td><td><div></div></td></tr><tr><td style="font-weight:bold;vertical-align:top;">version</td><td style="vertical-align:top;">:</td><td><div></div></td></tr></table></div></td></tr><tr><td style="font-weight:bold;vertical-align:top;">session_id_welcome</td><td style="vertical-align:top;">:</td><td><div>127.0.0.1-1f0ca055-ccea-4a03-a030-fd4cae38529b<table><tr><td style="font-weight:bold;vertical-align:top;">comment</td><td style="vertical-align:top;">:</td><td><div></div></td></tr><tr><td style="font-weight:bold;vertical-align:top;">domain</td><td style="vertical-align:top;">:</td><td><div></div></td></tr><tr><td style="font-weight:bold;vertical-align:top;">expires</td><td style="vertical-align:top;">:</td><td><div></div></td></tr><tr><td style="font-weight:bold;vertical-align:top;">httponly</td><td style="vertical-align:top;">:</td><td><div></div></td></tr><tr><td style="font-weight:bold;vertical-align:top;">max-age</td><td style="vertical-align:top;">:</td><td><div></div></td></tr><tr><td style="font-weight:bold;vertical-align:top;">path</td><td style="vertical-align:top;">:</td><td><div></div></td></tr><tr><td style="font-weight:bold;vertical-align:top;">secure</td><td style="vertical-align:top;">:</td><td><div></div></td></tr><tr><td style="font-weight:bold;vertical-align:top;">version</td><td style="vertical-align:top;">:</td><td><div></div></td></tr></table></div></td></tr></table></div></td></tr><tr><td style="font-weight:bold;vertical-align:top;">env</td><td style="vertical-align:top;">:</td><td><div><table><tr><td style="font-weight:bold;vertical-align:top;">HTTP_ACCEPT</td><td style="vertical-align:top;">:</td><td><div>text/html,application/xhtml+xml,application/xml;q=0.9,image/webp,*/*;q=0.8</div></td></tr><tr><td style="font-weight:bold;vertical-align:top;">HTTP_ACCEPT_ENCODING</td><td style="vertical-align:top;">:</td><td><div>gzip, deflate, sdch</div></td></tr><tr><td style="font-weight:bold;vertical-align:top;">HTTP_ACCEPT_LANGUAGE</td><td style="vertical-align:top;">:</td><td><div>en-US,en;q=0.8</div></td></tr><tr><td style="font-weight:bold;vertical-align:top;">HTTP_CONNECTION</td><td style="vertical-align:top;">:</td><td><div>keep-alive</div></td></tr><tr><td style="font-weight:bold;vertical-align:top;">HTTP_COOKIE</td><td style="vertical-align:top;">:</td><td><div>session_data_examples=&quot;9e0abf45a211bb51ce6c6c087516259e:IPzAWIn2qCxN_IIyz7BZkOFGWQYJ5NtYtl_TLUYqhLh-a0jNuiVywKux8FtGWcUDDuBMXzQ8Rp7cIdNuSqQcWn2Bo5aFLGeCuXLkUnGk5XpRShUb209VzECQv4puCCDT1yF4_qFkdXj27sVb0ruKJVSaME6CfTST43e53QiCKiqn5yrr4s2xrmxycN83Pi-jfmXfFbe_lqKnfaV6mR9UCEhdjIf-ZSbf9TI9ZDqOn1-VZaSNAVOfehceBvRswcC3M6ZR31BC7amqA6FkJc6h8lJra7MvS-EYCF1GF2JydF1lSGTo_MREtDPyLArrpVZ89z6fCx9FjLDni-gsYenIch4faQkbIR3pbLE69eddWDc=&quot;; session_id_examples=True; session_id_testapp=127.0.0.1-8e73f3fd-e9af-4ca3-9f18-a5a178878658; session_id_welcome=127.0.0.1-1f0ca055-ccea-4a03-a030-fd4cae38529b; session_id_admin=127.0.0.1-49bd2588-4c52-4231-80c0-0bbff6e42393; session_id_test1=127.0.0.1-d82fbd50-0776-4b5e-bb46-b6b3fcf93506; session_id_iconnect=127.0.0.1-13f2aefa-8d1d-449c-933d-d634e30b84f4</div></td></tr><tr><td style="font-weight:bold;vertical-align:top;">HTTP_HOST</td><td style="vertical-align:top;">:</td><td><div>127.0.0.1:8000</div></td></tr><tr><td style="font-weight:bold;vertical-align:top;">HTTP_REFERER</td><td style="vertical-align:top;">:</td><td><div>http://127.0.0.1:8000/iConnect/default/home</div></td></tr><tr><td style="font-weight:bold;vertical-align:top;">HTTP_UPGRADE_INSECURE_REQUESTS</td><td style="vertical-align:top;">:</td><td><div>1</div></td></tr><tr><td style="font-weight:bold;vertical-align:top;">HTTP_USER_AGENT</td><td style="vertical-align:top;">:</td><td><div>Mozilla/5.0 (Macintosh; Intel Mac OS X 10_11_0) AppleWebKit/537.36 (KHTML, like Gecko) Chrome/46.0.2490.80 Safari/537.36</div></td></tr><tr><td style="font-weight:bold;vertical-align:top;">PATH_INFO</td><td style="vertical-align:top;">:</td><td><div>/iConnect/default/index</div></td></tr><tr><td style="font-weight:bold;vertical-align:top;">QUERY_STRING</td><td style="vertical-align:top;">:</td><td><div></div></td></tr><tr><td style="font-weight:bold;vertical-align:top;">REMOTE_ADDR</td><td style="vertical-align:top;">:</td><td><div>127.0.0.1</div></td></tr><tr><td style="font-weight:bold;vertical-align:top;">REMOTE_PORT</td><td style="vertical-align:top;">:</td><td><div>57742</div></td></tr><tr><td style="font-weight:bold;vertical-align:top;">REQUEST_METHOD</td><td style="vertical-align:top;">:</td><td><div>GET</div></td></tr><tr><td style="font-weight:bold;vertical-align:top;">SCRIPT_NAME</td><td style="vertical-align:top;">:</td><td><div></div></td></tr><tr><td style="font-weight:bold;vertical-align:top;">SERVER_NAME</td><td style="vertical-align:top;">:</td><td><div>apples-MacBook-Pro.local</div></td></tr><tr><td style="font-weight:bold;vertical-align:top;">SERVER_PORT</td><td style="vertical-align:top;">:</td><td><div>8000</div></td></tr><tr><td style="font-weight:bold;vertical-align:top;">SERVER_PROTOCOL</td><td style="vertical-align:top;">:</td><td><div>HTTP/1.1</div></td></tr><tr><td style="font-weight:bold;vertical-align:top;">SERVER_SOFTWARE</td><td style="vertical-align:top;">:</td><td><div>Rocket 1.2.6</div></td></tr><tr><td style="font-weight:bold;vertical-align:top;">app_folders</td><td style="vertical-align:top;">:</td><td><div>set([&#x27;/Users/subash/Dropbox/MTechSem1/1_ScriptingAndComputingEnv/web2py/applications/test1/&#x27;, &#x27;/Users/subash/Dropbox/MTechSem1/1_ScriptingAndComputingEnv/web2py/applications/admin/&#x27;, &#x27;/Users/subash/Dropbox/MTechSem1/1_ScriptingAndComputingEnv/web2py/applications/iConnect/&#x27;, &#x27;/Users/subash/Dropbox/MTechSem1/1_ScriptingAndComputingEnv/web2py/applications/welcome/&#x27;])</div></td></tr><tr><td style="font-weight:bold;vertical-align:top;">applications_parent</td><td style="vertical-align:top;">:</td><td><div>/Users/subash/Dropbox/MTechSem1/1_ScriptingAndComputingEnv/web2py</div></td></tr><tr><td style="font-weight:bold;vertical-align:top;">cmd_args</td><td style="vertical-align:top;">:</td><td><div><table></table></div></td></tr><tr><td style="font-weight:bold;vertical-align:top;">cmd_options</td><td style="vertical-align:top;">:</td><td><div>&lt;Values at 0x10bd0e1b8: {&#x27;verbose&#x27;: False, &#x27;ip&#x27;: &#x27;127.0.0.1&#x27;, &#x27;debuglevel&#x27;: 30, &#x27;with_scheduler&#x27;: False, &#x27;ips&#x27;: [&#x27;fe80::5626:96ff:fedb:ccd5%en0&#x27;, &#x27;10.2.133.96&#x27;], &#x27;shutdown_timeout&#x27;: 5, &#x27;taskbar&#x27;: False, &#x27;with_coverage&#x27;: False, &#x27;scheduler_groups&#x27;: None, &#x27;port&#x27;: 8000, &#x27;maxthreads&#x27;: None, &#x27;softcron&#x27;: False, &#x27;server_name&#x27;: &#x27;apples-MacBook-Pro.local&#x27;, &#x27;bpython&#x27;: False, &#x27;nogui&#x27;: False, &#x27;pid_filename&#x27;: &#x27;httpserver.pid&#x27;, &#x27;print_errors&#x27;: False, &#x27;extcron&#x27;: False, &#x27;runcron&#x27;: False, &#x27;run_system_tests&#x27;: False, &#x27;test&#x27;: None, &#x27;folder&#x27;: &#x27;/Users/subash/Dropbox/MTechSem1/1_ScriptingAndComputingEnv/web2py&#x27;, &#x27;config&#x27;: &#x27;&#x27;, &#x27;minthreads&#x27;: None, &#x27;shell&#x27;: None, &#x27;run&#x27;: &#x27;&#x27;, &#x27;log_filename&#x27;: &#x27;httpserver.log&#x27;, &#x27;profiler_dir&#x27;: None, &#x27;args&#x27;: [&#x27;&#x27;], &#x27;socket_timeout&#x27;: 5, &#x27;ssl_ca_certificate&#x27;: None, &#x27;scheduler&#x27;: None, &#x27;interfaces&#x27;: None, &#x27;ssl_private_key&#x27;: &#x27;&#x27;, &#x27;gae&#x27;: None, &#x27;password&#x27;: &#x27;&lt;ask&gt;&#x27;, &#x27;request_queue_size&#x27;: 5, &#x27;ssl_certificate&#x27;: &#x27;&#x27;, &#x27;cronjob&#x27;: False, &#x27;numthreads&#x27;: None, &#x27;quiet&#x27;: False, &#x27;import_models&#x27;: False, &#x27;timeout&#x27;: 10, &#x27;plain&#x27;: False, &#x27;nobanner&#x27;: False}&gt;</div></td></tr><tr><td style="font-weight:bold;vertical-align:top;">db_sessions</td><td style="vertical-align:top;">:</td><td><div>set([])</div></td></tr><tr><td style="font-weight:bold;vertical-align:top;">debugging</td><td style="vertical-align:top;">:</td><td><div>True</div></td></tr><tr><td style="font-weight:bold;vertical-align:top;">gluon_parent</td><td style="vertical-align:top;">:</td><td><div>/Users/subash/Dropbox/MTechSem1/1_ScriptingAndComputingEnv/web2py</div></td></tr><tr><td style="font-weight:bold;vertical-align:top;">http_accept</td><td style="vertical-align:top;">:</td><td><div>text/html,application/xhtml+xml,application/xml;q=0.9,image/webp,*/*;q=0.8</div></td></tr><tr><td style="font-weight:bold;vertical-align:top;">http_accept_encoding</td><td style="vertical-align:top;">:</td><td><div>gzip, deflate, sdch</div></td></tr><tr><td style="font-weight:bold;vertical-align:top;">http_accept_language</td><td style="vertical-align:top;">:</td><td><div>en-US,en;q=0.8</div></td></tr><tr><td style="font-weight:bold;vertical-align:top;">http_connection</td><td style="vertical-align:top;">:</td><td><div>keep-alive</div></td></tr><tr><td style="font-weight:bold;vertical-align:top;">http_cookie</td><td style="vertical-align:top;">:</td><td><div>session_data_examples=&quot;9e0abf45a211bb51ce6c6c087516259e:IPzAWIn2qCxN_IIyz7BZkOFGWQYJ5NtYtl_TLUYqhLh-a0jNuiVywKux8FtGWcUDDuBMXzQ8Rp7cIdNuSqQcWn2Bo5aFLGeCuXLkUnGk5XpRShUb209VzECQv4puCCDT1yF4_qFkdXj27sVb0ruKJVSaME6CfTST43e53QiCKiqn5yrr4s2xrmxycN83Pi-jfmXfFbe_lqKnfaV6mR9UCEhdjIf-ZSbf9TI9ZDqOn1-VZaSNAVOfehceBvRswcC3M6ZR31BC7amqA6FkJc6h8lJra7MvS-EYCF1GF2JydF1lSGTo_MREtDPyLArrpVZ89z6fCx9FjLDni-gsYenIch4faQkbIR3pbLE69eddWDc=&quot;; session_id_examples=True; session_id_testapp=127.0.0.1-8e73f3fd-e9af-4ca3-9f18-a5a178878658; session_id_welcome=127.0.0.1-1f0ca055-ccea-4a03-a030-fd4cae38529b; session_id_admin=127.0.0.1-49bd2588-4c52-4231-80c0-0bbff6e42393; session_id_test1=127.0.0.1-d82fbd50-0776-4b5e-bb46-b6b3fcf93506; session_id_iconnect=127.0.0.1-13f2aefa-8d1d-449c-933d-d634e30b84f4</div></td></tr><tr><td style="font-weight:bold;vertical-align:top;">http_host</td><td style="vertical-align:top;">:</td><td><div>127.0.0.1:8000</div></td></tr><tr><td style="font-weight:bold;vertical-align:top;">http_referer</td><td style="vertical-align:top;">:</td><td><div>http://127.0.0.1:8000/iConnect/default/home</div></td></tr><tr><td style="font-weight:bold;vertical-align:top;">http_upgrade_insecure_requests</td><td style="vertical-align:top;">:</td><td><div>1</div></td></tr><tr><td style="font-weight:bold;vertical-align:top;">http_user_agent</td><td style="vertical-align:top;">:</td><td><div>Mozilla/5.0 (Macintosh; Intel Mac OS X 10_11_0) AppleWebKit/537.36 (KHTML, like Gecko) Chrome/46.0.2490.80 Safari/537.36</div></td></tr><tr><td style="font-weight:bold;vertical-align:top;">is_jython</td><td style="vertical-align:top;">:</td><td><div>False</div></td></tr><tr><td style="font-weight:bold;vertical-align:top;">is_pypy</td><td style="vertical-align:top;">:</td><td><div>False</div></td></tr><tr><td style="font-weight:bold;vertical-align:top;">is_source</td><td style="vertical-align:top;">:</td><td><div>True</div></td></tr><tr><td style="font-weight:bold;vertical-align:top;">local_hosts</td><td style="vertical-align:top;">:</td><td><div><table><tr><td><div>apples-macbook-pro.local</div></td></tr><tr><td><div>10.2.133.96</div></td></tr><tr><td><div>::ffff:127.0.0.1</div></td></tr><tr><td><div>::1</div></td></tr><tr><td><div>fe80::5626:96ff:fedb:ccd5%en0</div></td></tr><tr><td><div>apples-MacBook-Pro.local</div></td></tr><tr><td><div>127.0.0.1</div></td></tr></table></div></td></tr><tr><td style="font-weight:bold;vertical-align:top;">path_info</td><td style="vertical-align:top;">:</td><td><div>/iConnect/default/index</div></td></tr><tr><td style="font-weight:bold;vertical-align:top;">query_string</td><td style="vertical-align:top;">:</td><td><div></div></td></tr><tr><td style="font-weight:bold;vertical-align:top;">remote_addr</td><td style="vertical-align:top;">:</td><td><div>127.0.0.1</div></td></tr><tr><td style="font-weight:bold;vertical-align:top;">remote_port</td><td style="vertical-align:top;">:</td><td><div>57742</div></td></tr><tr><td style="font-weight:bold;vertical-align:top;">request_method</td><td style="vertical-align:top;">:</td><td><div>GET</div></td></tr><tr><td style="font-weight:bold;vertical-align:top;">request_uri</td><td style="vertical-align:top;">:</td><td><div>/iConnect/default/index</div></td></tr><tr><td style="font-weight:bold;vertical-align:top;">script_name</td><td style="vertical-align:top;">:</td><td><div></div></td></tr><tr><td style="font-weight:bold;vertical-align:top;">server_name</td><td style="vertical-align:top;">:</td><td><div>apples-MacBook-Pro.local</div></td></tr><tr><td style="font-weight:bold;vertical-align:top;">server_port</td><td style="vertical-align:top;">:</td><td><div>8000</div></td></tr><tr><td style="font-weight:bold;vertical-align:top;">server_protocol</td><td style="vertical-align:top;">:</td><td><div>HTTP/1.1</div></td></tr><tr><td style="font-weight:bold;vertical-align:top;">server_software</td><td style="vertical-align:top;">:</td><td><div>Rocket 1.2.6</div></td></tr><tr><td style="font-weight:bold;vertical-align:top;">web2py_path</td><td style="vertical-align:top;">:</td><td><div>/Users/subash/Dropbox/MTechSem1/1_ScriptingAndComputingEnv/web2py</div></td></tr><tr><td style="font-weight:bold;vertical-align:top;">web2py_version</td><td style="vertical-align:top;">:</td><td><div>2.12.3-stable+timestamp.2015.08.19.00.18.03</div></td></tr><tr><td style="font-weight:bold;vertical-align:top;">wsgi.errors</td><td style="vertical-align:top;">:</td><td><div>&lt;open file &#x27;&lt;stderr&gt;&#x27;, mode &#x27;w&#x27; at 0x10ad241e0&gt;</div></td></tr><tr><td style="font-weight:bold;vertical-align:top;">wsgi.file_wrapper</td><td style="vertical-align:top;">:</td><td><div>&lt;class wsgiref.util.FileWrapper at 0x10bc93668&gt;</div></td></tr><tr><td style="font-weight:bold;vertical-align:top;">wsgi.input</td><td style="vertical-align:top;">:</td><td><div>&lt;socket._fileobject object at 0x111df4550&gt;</div></td></tr><tr><td style="font-weight:bold;vertical-align:top;">wsgi.multiprocess</td><td style="vertical-align:top;">:</td><td><div>False</div></td></tr><tr><td style="font-weight:bold;vertical-align:top;">wsgi.multithread</td><td style="vertical-align:top;">:</td><td><div>True</div></td></tr><tr><td style="font-weight:bold;vertical-align:top;">wsgi.run_once</td><td style="vertical-align:top;">:</td><td><div>False</div></td></tr><tr><td style="font-weight:bold;vertical-align:top;">wsgi.url_scheme</td><td style="vertical-align:top;">:</td><td><div>http</div></td></tr><tr><td style="font-weight:bold;vertical-align:top;">wsgi.version</td><td style="vertical-align:top;">:</td><td><div><table><tr><td><div>1</div></td></tr><tr><td><div>0</div></td></tr></table></div></td></tr><tr><td style="font-weight:bold;vertical-align:top;">wsgi_errors</td><td style="vertical-align:top;">:</td><td><div>&lt;open file &#x27;&lt;stderr&gt;&#x27;, mode &#x27;w&#x27; at 0x10ad241e0&gt;</div></td></tr><tr><td style="font-weight:bold;vertical-align:top;">wsgi_file_wrapper</td><td style="vertical-align:top;">:</td><td><div>&lt;class wsgiref.util.FileWrapper at 0x10bc93668&gt;</div></td></tr><tr><td style="font-weight:bold;vertical-align:top;">wsgi_input</td><td style="vertical-align:top;">:</td><td><div>&lt;socket._fileobject object at 0x111df4550&gt;</div></td></tr><tr><td style="font-weight:bold;vertical-align:top;">wsgi_multiprocess</td><td style="vertical-align:top;">:</td><td><div>False</div></td></tr><tr><td style="font-weight:bold;vertical-align:top;">wsgi_multithread</td><td style="vertical-align:top;">:</td><td><div>True</div></td></tr><tr><td style="font-weight:bold;vertical-align:top;">wsgi_run_once</td><td style="vertical-align:top;">:</td><td><div>False</div></td></tr><tr><td style="font-weight:bold;vertical-align:top;">wsgi_url_scheme</td><td style="vertical-align:top;">:</td><td><div>http</div></td></tr><tr><td style="font-weight:bold;vertical-align:top;">wsgi_version</td><td style="vertical-align:top;">:</td><td><div><table><tr><td><div>1</div></td></tr><tr><td><div>0</div></td></tr></table></div></td></tr></table></div></td></tr><tr><td style="font-weight:bold;vertical-align:top;">extension</td><td style="vertical-align:top;">:</td><td><div>html</div></td></tr><tr><td style="font-weight:bold;vertical-align:top;">folder</td><td style="vertical-align:top;">:</td><td><div>/Users/subash/Dropbox/MTechSem1/1_ScriptingAndComputingEnv/web2py/applications/iConnect/</div></td></tr><tr><td style="font-weight:bold;vertical-align:top;">function</td><td style="vertical-align:top;">:</td><td><div>index</div></td></tr><tr><td style="font-weight:bold;vertical-align:top;">global_settings</td><td style="vertical-align:top;">:</td><td><div><table><tr><td style="font-weight:bold;vertical-align:top;">app_folders</td><td style="vertical-align:top;">:</td><td><div>set([&#x27;/Users/subash/Dropbox/MTechSem1/1_ScriptingAndComputingEnv/web2py/applications/test1/&#x27;, &#x27;/Users/subash/Dropbox/MTechSem1/1_ScriptingAndComputingEnv/web2py/applications/admin/&#x27;, &#x27;/Users/subash/Dropbox/MTechSem1/1_ScriptingAndComputingEnv/web2py/applications/iConnect/&#x27;, &#x27;/Users/subash/Dropbox/MTechSem1/1_ScriptingAndComputingEnv/web2py/applications/welcome/&#x27;])</div></td></tr><tr><td style="font-weight:bold;vertical-align:top;">applications_parent</td><td style="vertical-align:top;">:</td><td><div>/Users/subash/Dropbox/MTechSem1/1_ScriptingAndComputingEnv/web2py</div></td></tr><tr><td style="font-weight:bold;vertical-align:top;">cmd_args</td><td style="vertical-align:top;">:</td><td><div><table></table></div></td></tr><tr><td style="font-weight:bold;vertical-align:top;">cmd_options</td><td style="vertical-align:top;">:</td><td><div>&lt;Values at 0x10bd0e1b8: {&#x27;verbose&#x27;: False, &#x27;ip&#x27;: &#x27;127.0.0.1&#x27;, &#x27;debuglevel&#x27;: 30, &#x27;with_scheduler&#x27;: False, &#x27;ips&#x27;: [&#x27;fe80::5626:96ff:fedb:ccd5%en0&#x27;, &#x27;10.2.133.96&#x27;], &#x27;shutdown_timeout&#x27;: 5, &#x27;taskbar&#x27;: False, &#x27;with_coverage&#x27;: False, &#x27;scheduler_groups&#x27;: None, &#x27;port&#x27;: 8000, &#x27;maxthreads&#x27;: None, &#x27;softcron&#x27;: False, &#x27;server_name&#x27;: &#x27;apples-MacBook-Pro.local&#x27;, &#x27;bpython&#x27;: False, &#x27;nogui&#x27;: False, &#x27;pid_filename&#x27;: &#x27;httpserver.pid&#x27;, &#x27;print_errors&#x27;: False, &#x27;extcron&#x27;: False, &#x27;runcron&#x27;: False, &#x27;run_system_tests&#x27;: False, &#x27;test&#x27;: None, &#x27;folder&#x27;: &#x27;/Users/subash/Dropbox/MTechSem1/1_ScriptingAndComputingEnv/web2py&#x27;, &#x27;config&#x27;: &#x27;&#x27;, &#x27;minthreads&#x27;: None, &#x27;shell&#x27;: None, &#x27;run&#x27;: &#x27;&#x27;, &#x27;log_filename&#x27;: &#x27;httpserver.log&#x27;, &#x27;profiler_dir&#x27;: None, &#x27;args&#x27;: [&#x27;&#x27;], &#x27;socket_timeout&#x27;: 5, &#x27;ssl_ca_certificate&#x27;: None, &#x27;scheduler&#x27;: None, &#x27;interfaces&#x27;: None, &#x27;ssl_private_key&#x27;: &#x27;&#x27;, &#x27;gae&#x27;: None, &#x27;password&#x27;: &#x27;&lt;ask&gt;&#x27;, &#x27;request_queue_size&#x27;: 5, &#x27;ssl_certificate&#x27;: &#x27;&#x27;, &#x27;cronjob&#x27;: False, &#x27;numthreads&#x27;: None, &#x27;quiet&#x27;: False, &#x27;import_models&#x27;: False, &#x27;timeout&#x27;: 10, &#x27;plain&#x27;: False, &#x27;nobanner&#x27;: False}&gt;</div></td></tr><tr><td style="font-weight:bold;vertical-align:top;">db_sessions</td><td style="vertical-align:top;">:</td><td><div>set([])</div></td></tr><tr><td style="font-weight:bold;vertical-align:top;">debugging</td><td style="vertical-align:top;">:</td><td><div>True</div></td></tr><tr><td style="font-weight:bold;vertical-align:top;">gluon_parent</td><td style="vertical-align:top;">:</td><td><div>/Users/subash/Dropbox/MTechSem1/1_ScriptingAndComputingEnv/web2py</div></td></tr><tr><td style="font-weight:bold;vertical-align:top;">is_jython</td><td style="vertical-align:top;">:</td><td><div>False</div></td></tr><tr><td style="font-weight:bold;vertical-align:top;">is_pypy</td><td style="vertical-align:top;">:</td><td><div>False</div></td></tr><tr><td style="font-weight:bold;vertical-align:top;">is_source</td><td style="vertical-align:top;">:</td><td><div>True</div></td></tr><tr><td style="font-weight:bold;vertical-align:top;">local_hosts</td><td style="vertical-align:top;">:</td><td><div><table><tr><td><div>apples-macbook-pro.local</div></td></tr><tr><td><div>10.2.133.96</div></td></tr><tr><td><div>::ffff:127.0.0.1</div></td></tr><tr><td><div>::1</div></td></tr><tr><td><div>fe80::5626:96ff:fedb:ccd5%en0</div></td></tr><tr><td><div>apples-MacBook-Pro.local</div></td></tr><tr><td><div>127.0.0.1</div></td></tr></table></div></td></tr><tr><td style="font-weight:bold;vertical-align:top;">web2py_version</td><td style="vertical-align:top;">:</td><td><div>2.12.3-stable+timestamp.2015.08.19.00.18.03</div></td></tr></table></div></td></tr><tr><td style="font-weight:bold;vertical-align:top;">is_https</td><td style="vertical-align:top;">:</td><td><div>False</div></td></tr><tr><td style="font-weight:bold;vertical-align:top;">is_local</td><td style="vertical-align:top;">:</td><td><div>True</div></td></tr><tr><td style="font-weight:bold;vertical-align:top;">is_restful</td><td style="vertical-align:top;">:</td><td><div>False</div></td></tr><tr><td style="font-weight:bold;vertical-align:top;">is_sheduler</td><td style="vertical-align:top;">:</td><td><div>None</div></td></tr><tr><td style="font-weight:bold;vertical-align:top;">is_shell</td><td style="vertical-align:top;">:</td><td><div>None</div></td></tr><tr><td style="font-weight:bold;vertical-align:top;">now</td><td style="vertical-align:top;">:</td><td><div>datetime.datetime(2015, 11, 13, 11, 4, 8, 893314)</div></td></tr><tr><td style="font-weight:bold;vertical-align:top;">raw_args</td><td style="vertical-align:top;">:</td><td><div></div></td></tr><tr><td style="font-weight:bold;vertical-align:top;">raw_extension</td><td style="vertical-align:top;">:</td><td><div>None</div></td></tr><tr><td style="font-weight:bold;vertical-align:top;">url</td><td style="vertical-align:top;">:</td><td><div>/iConnect/default/index</div></td></tr><tr><td style="font-weight:bold;vertical-align:top;">utcnow</td><td style="vertical-align:top;">:</td><td><div>datetime.datetime(2015, 11, 13, 5, 34, 8, 893328)</div></td></tr><tr><td style="font-weight:bold;vertical-align:top;">wsgi</td><td style="vertical-align:top;">:</td><td><div>&lt;gluon.main.LazyWSGI object at 0x112951150&gt;</div></td></tr></table></div>'
tRp58
sS'frames'
p59
(lp60
(dp61
S'file'
p62
S'/Users/subash/Dropbox/MTechSem1/1_ScriptingAndComputingEnv/web2py/gluon/restricted.py'
p63
sS'dump'
p64
(dp65
S'environment'
p66
S"{'A': <class 'gluon.html.A'>, 'ANY_OF': <class 'gluon.validators.ANY_OF'>, 'ASSIGNJS': <function ASSIGNJS>, 'AppConfig': <function AppConfig>, 'Auth': <class 'gluon.tools.Auth'>, 'B': <class 'gluon.html.B'>, 'BEAUTIFY': <class 'gluon.html.BEAUTIFY'>, 'BODY': <class 'gluon.html.BODY'>, 'BR': <class 'gluon.html.BR'>, 'BUTTON': <class 'gluon.html.BUTTON'>, ...}"
p67
sS'ccode'
p68
S'<code object <module> at 0x111df45b0, file "/Use...2py/applications/iConnect/models/db1.py", line 4>'
p69
ssS'lnum'
p70
I227
sS'lines'
p71
(dp72
I224
S'            ccode = code'
p73
sI225
S'        else:'
p74
sI226
S'            ccode = compile2(code, layer)'
p75
sI227
S'        exec ccode in environment'
p76
sI228
S'    except HTTP:'
p77
sI229
S'        raise'
p78
sI230
S'    except RestrictedError:'
p79
sI231
S'        # do not encapsulate (obfuscate) the original RestrictedError'
p80
sI222
S'    try:'
p81
sI223
S'        if isinstance(code, types.CodeType):'
p82
ssS'call'
p83
S'(code="# -*- coding: utf-8 -*-\\n\\n# to track user interes...,\'text\',requires=IS_IN_SET((\'Yes\',\'No\')))\\n\\t)\\n\\n\\n\\n\\n", environment={\'A\': <class \'gluon.html.A\'>, \'ANY_OF\': <class \'gluon.validators.ANY_OF\'>, \'ASSIGNJS\': <function ASSIGNJS>, \'AppConfig\': <function AppConfig>, \'Auth\': <class \'gluon.tools.Auth\'>, \'B\': <class \'gluon.html.B\'>, \'BEAUTIFY\': <class \'gluon.html.BEAUTIFY\'>, \'BODY\': <class \'gluon.html.BODY\'>, \'BR\': <class \'gluon.html.BR\'>, \'BUTTON\': <class \'gluon.html.BUTTON\'>, ...}, layer=\'/Users/subash/Dropbox/MTechSem1/1_ScriptingAndCo...ingEnv/web2py/applications/iConnect/models/db1.py\')'
p84
sS'func'
p85
S'restricted'
p86
sa(dp87
g62
S'/Users/subash/Dropbox/MTechSem1/1_ScriptingAndComputingEnv/web2py/applications/iConnect/models/db1.py'
p88
sg64
(dp89
S'auth.user.id'
p90
S'undefined'
p91
sS'builtinFalse'
p92
S'False'
p93
sS'default'
p94
g91
sS'builtinTrue'
p95
S'True'
p96
sS'readable'
p97
g91
sS'auth'
p98
S'<gluon.tools.Auth object>'
p99
sS'writable'
p100
g91
sS'Field'
p101
S"<class 'pydal.objects.Field'>"
p102
sS'auth.user'
p103
S'None'
p104
sS'unique'
p105
g91
ssg70
I5
sg71
(dp106
I2
S''
sI3
S'# to track user interests'
p107
sI4
S"db.define_table('Interests',"
p108
sI5
S"\tField('userId','reference auth_user',unique=True,readable=False,writable=False,default=auth.user.id),"
p109
sI6
S"\tField('Singing','text',requires=IS_IN_SET(('Yes','No'))),"
p110
sI7
S"\tField('Dancing','text',requires=IS_IN_SET(('Yes','No'))),"
p111
sI8
S"\tField('Phtography','text',requires=IS_IN_SET(('Yes','No'))),"
p112
sI9
S"\tField('Painting','text',requires=IS_IN_SET(('Yes','No'))),"
p113
sI10
S"\tField('Reading','text',requires=IS_IN_SET(('Yes','No'))),"
p114
sI11
S"\tField('Travelling','text',requires=IS_IN_SET(('Yes','No'))),"
p115
ssg83
S'()'
p116
sg85
S'<module>'
p117
sasS'pyver'
p118
S'Python 2.7.10: /usr/bin/python (prefix: /System/Library/Frameworks/Python.framework/Versions/2.7)'
p119
sS'session'
p120
g57
(S's\x9c\x00\x00\x00<div><table><tr><td style="font-weight:bold;vertical-align:top;">flash</td><td style="vertical-align:top;">:</td><td><div>None</div></td></tr></table></div>'
tRp121
sS'etype'
p122
S"<type 'exceptions.AttributeError'>"
p123
sS'date'
p124
S'Fri Nov 13 11:04:08 2015'
p125
sS'response'
p126
g57
(S'sY\x18\x00\x00<div><table><tr><td style="font-weight:bold;vertical-align:top;">body</td><td style="vertical-align:top;">:</td><td><div>&lt;cStringIO.StringO object at 0x11299f6f8&gt;</div></td></tr><tr><td style="font-weight:bold;vertical-align:top;">cookies</td><td style="vertical-align:top;">:</td><td><div><table><tr><td style="font-weight:bold;vertical-align:top;">session_id_iconnect</td><td style="vertical-align:top;">:</td><td><div>127.0.0.1-13f2aefa-8d1d-449c-933d-d634e30b84f4<table><tr><td style="font-weight:bold;vertical-align:top;">comment</td><td style="vertical-align:top;">:</td><td><div></div></td></tr><tr><td style="font-weight:bold;vertical-align:top;">domain</td><td style="vertical-align:top;">:</td><td><div></div></td></tr><tr><td style="font-weight:bold;vertical-align:top;">expires</td><td style="vertical-align:top;">:</td><td><div></div></td></tr><tr><td style="font-weight:bold;vertical-align:top;">httponly</td><td style="vertical-align:top;">:</td><td><div></div></td></tr><tr><td style="font-weight:bold;vertical-align:top;">max-age</td><td style="vertical-align:top;">:</td><td><div></div></td></tr><tr><td style="font-weight:bold;vertical-align:top;">path</td><td style="vertical-align:top;">:</td><td><div>/</div></td></tr><tr><td style="font-weight:bold;vertical-align:top;">secure</td><td style="vertical-align:top;">:</td><td><div></div></td></tr><tr><td style="font-weight:bold;vertical-align:top;">version</td><td style="vertical-align:top;">:</td><td><div></div></td></tr></table></div></td></tr></table></div></td></tr><tr><td style="font-weight:bold;vertical-align:top;">delimiters</td><td style="vertical-align:top;">:</td><td><div><table><tr><td><div>{{</div></td></tr><tr><td><div>}}</div></td></tr></table></div></td></tr><tr><td style="font-weight:bold;vertical-align:top;">files</td><td style="vertical-align:top;">:</td><td><div><table></table></div></td></tr><tr><td style="font-weight:bold;vertical-align:top;">flash</td><td style="vertical-align:top;">:</td><td><div>Logged out</div></td></tr><tr><td style="font-weight:bold;vertical-align:top;">form_label_separator</td><td style="vertical-align:top;">:</td><td><div></div></td></tr><tr><td style="font-weight:bold;vertical-align:top;">formstyle</td><td style="vertical-align:top;">:</td><td><div>bootstrap3_inline</div></td></tr><tr><td style="font-weight:bold;vertical-align:top;">generic_patterns</td><td style="vertical-align:top;">:</td><td><div><table><tr><td><div>*</div></td></tr></table></div></td></tr><tr><td style="font-weight:bold;vertical-align:top;">headers</td><td style="vertical-align:top;">:</td><td><div><table><tr><td style="font-weight:bold;vertical-align:top;">X-Powered-By</td><td style="vertical-align:top;">:</td><td><div>web2py</div></td></tr></table></div></td></tr><tr><td style="font-weight:bold;vertical-align:top;">menu</td><td style="vertical-align:top;">:</td><td><div><table></table></div></td></tr><tr><td style="font-weight:bold;vertical-align:top;">meta</td><td style="vertical-align:top;">:</td><td><div><table></table></div></td></tr><tr><td style="font-weight:bold;vertical-align:top;">models_to_run</td><td style="vertical-align:top;">:</td><td><div><table><tr><td><div>^\\w+\\.py$</div></td></tr><tr><td><div>^default/\\w+\\.py$</div></td></tr><tr><td><div>^default/index/\\w+\\.py$</div></td></tr></table></div></td></tr><tr><td style="font-weight:bold;vertical-align:top;">postprocessing</td><td style="vertical-align:top;">:</td><td><div><table></table></div></td></tr><tr><td style="font-weight:bold;vertical-align:top;">session_client</td><td style="vertical-align:top;">:</td><td><div>127.0.0.1</div></td></tr><tr><td style="font-weight:bold;vertical-align:top;">session_cookie_compression_level</td><td style="vertical-align:top;">:</td><td><div>None</div></td></tr><tr><td style="font-weight:bold;vertical-align:top;">session_cookie_expires</td><td style="vertical-align:top;">:</td><td><div>None</div></td></tr><tr><td style="font-weight:bold;vertical-align:top;">session_cookie_key</td><td style="vertical-align:top;">:</td><td><div>None</div></td></tr><tr><td style="font-weight:bold;vertical-align:top;">session_data_name</td><td style="vertical-align:top;">:</td><td><div>session_data_iconnect</div></td></tr><tr><td style="font-weight:bold;vertical-align:top;">session_file</td><td style="vertical-align:top;">:</td><td><div>&lt;open file &#x27;/Users/subash/Dropbox/MTechSem1/1_ScriptingAndComputingEnv/web2py/applications/iConnect/sessions/0dc/050/127.0.0.1-13f2aefa-8d1d-449c-933d-d634e30b84f4&#x27;, mode &#x27;rb+&#x27; at 0x111f27540&gt;</div></td></tr><tr><td style="font-weight:bold;vertical-align:top;">session_filename</td><td style="vertical-align:top;">:</td><td><div>/Users/subash/Dropbox/MTechSem1/1_ScriptingAndComputingEnv/web2py/applications/iConnect/sessions/127.0.0.1-13f2aefa-8d1d-449c-933d-d634e30b84f4</div></td></tr><tr><td style="font-weight:bold;vertical-align:top;">session_hash</td><td style="vertical-align:top;">:</td><td><div>fe7fc3a64b28dddb5eecda6c04377b90</div></td></tr><tr><td style="font-weight:bold;vertical-align:top;">session_id</td><td style="vertical-align:top;">:</td><td><div>127.0.0.1-13f2aefa-8d1d-449c-933d-d634e30b84f4</div></td></tr><tr><td style="font-weight:bold;vertical-align:top;">session_id_name</td><td style="vertical-align:top;">:</td><td><div>session_id_iconnect</div></td></tr><tr><td style="font-weight:bold;vertical-align:top;">session_locked</td><td style="vertical-align:top;">:</td><td><div>True</div></td></tr><tr><td style="font-weight:bold;vertical-align:top;">session_masterapp</td><td style="vertical-align:top;">:</td><td><div>iConnect</div></td></tr><tr><td style="font-weight:bold;vertical-align:top;">session_new</td><td style="vertical-align:top;">:</td><td><div>False</div></td></tr><tr><td style="font-weight:bold;vertical-align:top;">session_storage_type</td><td style="vertical-align:top;">:</td><td><div>file</div></td></tr><tr><td style="font-weight:bold;vertical-align:top;">status</td><td style="vertical-align:top;">:</td><td><div>200</div></td></tr><tr><td style="font-weight:bold;vertical-align:top;">view</td><td style="vertical-align:top;">:</td><td><div>default/index.html</div></td></tr></table></div>'
tRp127
sS'locals'
p128
(dp129
S'Service'
p130
S"<class 'gluon.tools.Service'>"
p131
sS'OBJECT'
p132
S"<class 'gluon.html.OBJECT'>"
p133
sS'SQLDB'
p134
S"<class 'pydal.base.DAL'>"
p135
sg120
S"<Storage {'flash': None}>"
p136
sS'LINK'
p137
S"<class 'gluon.html.LINK'>"
p138
sS'BR'
p139
S"<class 'gluon.html.BR'>"
p140
sS'local_import'
p141
S'<function <lambda>>'
p142
sS'OPTGROUP'
p143
S"<class 'gluon.html.OPTGROUP'>"
p144
sS'__package__'
p145
S'None'
p146
sS'PRE'
p147
S"<class 'gluon.html.PRE'>"
p148
sS'IS_INT_IN_RANGE'
p149
S"<class 'gluon.validators.IS_INT_IN_RANGE'>"
p150
sS'IS_LOWER'
p151
S"<class 'gluon.validators.IS_LOWER'>"
p152
sS'IS_STRONG'
p153
S"<class 'gluon.validators.IS_STRONG'>"
p154
sS'cache'
p155
S'<gluon.cache.Cache object>'
p156
sS'IS_IN_DB'
p157
S"<class 'gluon.validators.IS_IN_DB'>"
p158
sS'TAG'
p159
S'<gluon.html.__TAG__ object>'
p160
sS'SQLField'
p161
S"<class 'pydal.objects.Field'>"
p162
sS'mail'
p163
S'<gluon.tools.Mail object>'
p164
sS'BODY'
p165
S"<class 'gluon.html.BODY'>"
p166
sS'IS_DATE_IN_RANGE'
p167
S"<class 'gluon.validators.IS_DATE_IN_RANGE'>"
p168
sS'TH'
p169
S"<class 'gluon.html.TH'>"
p170
sS'URL'
p171
S'<function URL>'
p172
sS'__file__'
p173
S"'/Users/subash/Dropbox/MTechSem1/1_ScriptingAndCo...ingEnv/web2py/applications/iConnect/models/db1.py'"
p174
sS'db'
p175
S'<DAL uri="sqlite://storage.sqlite">'
p176
sS'auth'
p177
S'<gluon.tools.Auth object>'
p178
sS'P'
S"<class 'gluon.html.P'>"
p179
sS'TFOOT'
p180
S"<class 'gluon.html.TFOOT'>"
p181
sS'XHTML'
p182
S"<class 'gluon.html.XHTML'>"
p183
sS'ON'
p184
g96
sS'OL'
p185
S"<class 'gluon.html.OL'>"
p186
sS'TEXTAREA'
p187
S"<class 'gluon.html.TEXTAREA'>"
p188
sS'MENU'
p189
S"<class 'gluon.html.MENU'>"
p190
sS'LOAD'
p191
S'<function LOAD>'
p192
sS'CODE'
p193
S"<class 'gluon.html.CODE'>"
p194
sS'HTTP'
p195
S"<class 'gluon.http.HTTP'>"
p196
sS'HR'
p197
S"<class 'gluon.html.HR'>"
p198
sS'IS_DATETIME'
p199
S"<class 'gluon.validators.IS_DATETIME'>"
p200
sS'HEAD'
p201
S"<class 'gluon.html.HEAD'>"
p202
sS'LABEL'
p203
S"<class 'gluon.html.LABEL'>"
p204
sS'CLEANUP'
p205
S"<class 'gluon.validators.CLEANUP'>"
p206
sS'plugins'
p207
S'<gluon.tools.PluginManager object>'
p208
sS'SELECT'
p209
S"<class 'gluon.html.SELECT'>"
p210
sS'CENTER'
p211
S"<class 'gluon.html.CENTER'>"
p212
sS'Auth'
p213
S"<class 'gluon.tools.Auth'>"
p214
sS'__builtins__'
p215
S"{'ArithmeticError': <type 'exceptions.ArithmeticError'>, 'AssertionError': <type 'exceptions.AssertionError'>, 'AttributeError': <type 'exceptions.AttributeError'>, 'BaseException': <type 'exceptions.BaseException'>, 'BufferError': <type 'exceptions.BufferError'>, 'BytesWarning': <type 'exceptions.BytesWarning'>, 'DeprecationWarning': <type 'exceptions.DeprecationWarning'>, 'EOFError': <type 'exceptions.EOFError'>, 'Ellipsis': Ellipsis, 'EnvironmentError': <type 'exceptions.EnvironmentError'>, ...}"
p216
sS'HTML'
p217
S"<class 'gluon.html.HTML'>"
p218
sS'SQLFORM'
p219
S"<class 'gluon.sqlhtml.SQLFORM'>"
p220
sS'EM'
p221
S"<class 'gluon.html.EM'>"
p222
sS'redirect'
p223
S'<function redirect>'
p224
sS'FIELDSET'
p225
S"<class 'gluon.html.FIELDSET'>"
p226
sS'IS_EQUAL_TO'
p227
S"<class 'gluon.validators.IS_EQUAL_TO'>"
p228
sS'embed64'
p229
S'<function embed64>'
p230
sS'IS_LIST_OF'
p231
S"<class 'gluon.validators.IS_LIST_OF'>"
p232
sS'__name__'
p233
S"'__restricted__'"
p234
sS'EMBED'
p235
S"<class 'gluon.html.EMBED'>"
p236
sS'FORM'
p237
S"<class 'gluon.html.FORM'>"
p238
sS'myconf'
p239
S"{'forms': {'formstyle': 'bootstrap3_inline', 'se...'you@gmail.com', 'server': 'smtp.gmail.com:587'}}"
p240
sS'H2'
p241
S"<class 'gluon.html.H2'>"
p242
sS'H3'
p243
S"<class 'gluon.html.H3'>"
p244
sS'AppConfig'
p245
S'<function AppConfig>'
p246
sS'H1'
p247
S"<class 'gluon.html.H1'>"
p248
sS'H6'
p249
S"<class 'gluon.html.H6'>"
p250
sS'H4'
p251
S"<class 'gluon.html.H4'>"
p252
sS'H5'
p253
S"<class 'gluon.html.H5'>"
p254
sS'UL'
p255
S"<class 'gluon.html.UL'>"
p256
sS'IS_UPPER'
p257
S"<class 'gluon.validators.IS_UPPER'>"
p258
sS'xmlescape'
p259
S'<function xmlescape>'
p260
sS'IS_TIME'
p261
S"<class 'gluon.validators.IS_TIME'>"
p262
sS'OPTION'
p263
S"<class 'gluon.html.OPTION'>"
p264
sS'TITLE'
p265
S"<class 'gluon.html.TITLE'>"
p266
sS'CRYPT'
p267
S"<class 'gluon.validators.CRYPT'>"
p268
sS'IS_EMPTY_OR'
p269
S"<class 'gluon.validators.IS_EMPTY_OR'>"
p270
sS'MARKMIN'
p271
S"<class 'gluon.html.MARKMIN'>"
p272
sS'INPUT'
p273
S"<class 'gluon.html.INPUT'>"
p274
sS'STRONG'
p275
S"<class 'gluon.html.STRONG'>"
p276
sS'COL'
p277
S"<class 'gluon.html.COL'>"
p278
sS'service'
p279
S'<gluon.tools.Service object>'
p280
sS'SCRIPT'
p281
S"<class 'gluon.html.SCRIPT'>"
p282
sS'TABLE'
p283
S"<class 'gluon.html.TABLE'>"
p284
sS'IS_IPV4'
p285
S"<class 'gluon.validators.IS_IPV4'>"
p286
sS'IS_LENGTH'
p287
S"<class 'gluon.validators.IS_LENGTH'>"
p288
sS'IS_IPV6'
p289
S"<class 'gluon.validators.IS_IPV6'>"
p290
sS'XML'
p291
S"<class 'gluon.html.XML'>"
p292
sS'B'
S"<class 'gluon.html.B'>"
p293
sS'IMG'
p294
S"<class 'gluon.html.IMG'>"
p295
sS'SQLTABLE'
p296
S"<class 'gluon.sqlhtml.SQLTABLE'>"
p297
sS'IS_MATCH'
p298
S"<class 'gluon.validators.IS_MATCH'>"
p299
sS'IS_ALPHANUMERIC'
p300
S"<class 'gluon.validators.IS_ALPHANUMERIC'>"
p301
sS'SPAN'
p302
S"<class 'gluon.html.SPAN'>"
p303
sS'IS_JSON'
p304
S"<class 'gluon.validators.IS_JSON'>"
p305
sS'IS_IPADDRESS'
p306
S"<class 'gluon.validators.IS_IPADDRESS'>"
p307
sS'IS_SLUG'
p308
S"<class 'gluon.validators.IS_SLUG'>"
p309
sS'BEAUTIFY'
p310
S"<class 'gluon.html.BEAUTIFY'>"
p311
sS'META'
p312
S"<class 'gluon.html.META'>"
p313
sS'BUTTON'
p314
S"<class 'gluon.html.BUTTON'>"
p315
sS'IS_DATE'
p316
S"<class 'gluon.validators.IS_DATE'>"
p317
sS'IS_EMAIL'
p318
S"<class 'gluon.validators.IS_EMAIL'>"
p319
sS'IS_NOT_EMPTY'
p320
S"<class 'gluon.validators.IS_NOT_EMPTY'>"
p321
sS'IS_FLOAT_IN_RANGE'
p322
S"<class 'gluon.validators.IS_FLOAT_IN_RANGE'>"
p323
sS'TBODY'
p324
S"<class 'gluon.html.TBODY'>"
p325
sS'CAT'
p326
S"<class 'gluon.html.CAT'>"
p327
sS'Field'
p328
S"<class 'pydal.objects.Field'>"
p329
sS'IS_LIST_OF_EMAILS'
p330
S"<class 'gluon.validators.IS_LIST_OF_EMAILS'>"
p331
sS'DIV'
p332
S"<class 'gluon.html.DIV'>"
p333
sS'LEGEND'
p334
S"<class 'gluon.html.LEGEND'>"
p335
sS'COLGROUP'
p336
S"<class 'gluon.html.COLGROUP'>"
p337
sS'DAL'
p338
S"<class 'pydal.base.DAL'>"
p339
sS'ASSIGNJS'
p340
S'<function ASSIGNJS>'
p341
sS'TR'
p342
S"<class 'gluon.html.TR'>"
p343
sS'LI'
p344
S"<class 'gluon.html.LI'>"
p345
sS'IFRAME'
p346
S"<class 'gluon.html.IFRAME'>"
p347
sS'TD'
p348
S"<class 'gluon.html.TD'>"
p349
sS'PluginManager'
p350
S"<class 'gluon.tools.PluginManager'>"
p351
sS'IS_URL'
p352
S"<class 'gluon.validators.IS_URL'>"
p353
sS'A'
S"<class 'gluon.html.A'>"
p354
sS'STYLE'
p355
S"<class 'gluon.html.STYLE'>"
p356
sS'IS_DATETIME_IN_RANGE'
p357
S"<class 'gluon.validators.IS_DATETIME_IN_RANGE'>"
p358
sS'IS_IMAGE'
p359
S"<class 'gluon.validators.IS_IMAGE'>"
p360
sS'I'
S"<class 'gluon.html.I'>"
p361
sS'IS_NOT_IN_DB'
p362
S"<class 'gluon.validators.IS_NOT_IN_DB'>"
p363
sg126
S"<Storage {'body': <cStringIO.StringO object at 0...> at 0x11269b2a8>, 'view': 'default/index.html'}>"
p364
sS'THEAD'
p365
S"<class 'gluon.html.THEAD'>"
p366
sS'ANY_OF'
p367
S"<class 'gluon.validators.ANY_OF'>"
p368
sS'IS_NULL_OR'
p369
S"<class 'gluon.validators.IS_EMPTY_OR'>"
p370
sg56
S"<Storage {'_vars': None, 'function': 'index', 'c...gAndComputingEnv/web2py/applications/iConnect/'}>"
p371
sS'IS_EXPR'
p372
S"<class 'gluon.validators.IS_EXPR'>"
p373
sS'IS_IN_SET'
p374
S"<class 'gluon.validators.IS_IN_SET'>"
p375
sS'IS_UPLOAD_FILENAME'
p376
S"<class 'gluon.validators.IS_UPLOAD_FILENAME'>"
p377
sS'IS_DECIMAL_IN_RANGE'
p378
S"<class 'gluon.validators.IS_DECIMAL_IN_RANGE'>"
p379
sS'TT'
p380
S"<class 'gluon.html.TT'>"
p381
sS'T'
S'<gluon.languages.translator object>'
p382
sssS'traceback'
p383
S'Traceback (most recent call last):\n  File "/Users/subash/Dropbox/MTechSem1/1_ScriptingAndComputingEnv/web2py/gluon/restricted.py", line 227, in restricted\n    exec ccode in environment\n  File "/Users/subash/Dropbox/MTechSem1/1_ScriptingAndComputingEnv/web2py/applications/iConnect/models/db1.py", line 5, in <module>\n    Field(\'userId\',\'reference auth_user\',unique=True,readable=False,writable=False,default=auth.user.id),\nAttributeError: \'NoneType\' object has no attribute \'id\'\n'
p384
s.